CCS PCH C Compiler, Version 4.104, 5967               01-may.-18 22:41

               Filename: D:\Proyecto\main.lst

               ROM used: 27068 bytes (28%)
                         Largest free fragment is 38468
               RAM used: 634 (19%) at main() level
                         671 (20%) worst case
               Stack:    4 locations

*
00000:  GOTO   1D2C
.................... #include "D:\Proyecto\main.h" 
.................... #include <18F4685.h> 
.................... //////// Standard Header file for the PIC18F4685 device //////////////// 
.................... #device PIC18F4685 
.................... #list 
....................  
.................... #device adc=8 
....................  
.................... #FUSES NOWDT                 	//No Watch Dog Timer 
.................... #FUSES WDT128                	//Watch Dog Timer uses 1:128 Postscale 
.................... #FUSES LP                    	//Low power osc < 200 khz 
.................... #FUSES NOPROTECT             	//Code not protected from reading 
.................... #FUSES NOBROWNOUT            	//No brownout reset 
.................... #FUSES BORV20                	//Brownout reset at 2.0V 
.................... #FUSES NOPUT                 	//No Power Up Timer 
.................... #FUSES NOCPD                 	//No EE protection 
.................... #FUSES STVREN                	//Stack full/underflow will cause reset 
.................... #FUSES NODEBUG               	//No Debug mode for ICD 
.................... #FUSES NOLVP                 	//No low voltage prgming, B3(PIC16) or B5(PIC18) used for I/O 
.................... #FUSES NOWRT                 	//Program memory not write protected 
.................... #FUSES NOWRTD                	//Data EEPROM not write protected 
.................... #FUSES IESO                  	//Internal External Switch Over mode enabled 
.................... #FUSES FCMEN                 	//Fail-safe clock monitor enabled 
.................... #FUSES PBADEN                	//PORTB pins are configured as analog input channels on RESET 
.................... #FUSES BBSIZ4K               	//4K words Boot Block size 
.................... #FUSES NOWRTC                	//configuration not registers write protected 
.................... #FUSES NOWRTB                	//Boot block not write protected 
.................... #FUSES NOEBTR                	//Memory not protected from table reads 
.................... #FUSES NOEBTRB               	//Boot block not protected from table reads 
.................... #FUSES NOCPB                 	//No Boot Block code protection 
.................... #FUSES LPT1OSC               	//Timer1 configured for low-power operation 
.................... #FUSES MCLR                  	//Master Clear pin enabled 
.................... #FUSES NOXINST               	//Extended set extension and Indexed Addressing mode disabled (Legacy mode) 
....................  
.................... #use delay(clock=8000000) 
*
00D82:  MOVLW  02
00D84:  MOVWF  FEA
00D86:  MOVLW  84
00D88:  MOVWF  FE9
00D8A:  MOVF   FEF,W
00D8C:  BZ    0DA8
00D8E:  MOVLW  02
00D90:  MOVWF  01
00D92:  CLRF   00
00D94:  DECFSZ 00,F
00D96:  BRA    0D94
00D98:  DECFSZ 01,F
00D9A:  BRA    0D92
00D9C:  MOVLW  97
00D9E:  MOVWF  00
00DA0:  DECFSZ 00,F
00DA2:  BRA    0DA0
00DA4:  DECFSZ FEF,F
00DA6:  BRA    0D8E
00DA8:  RETLW  00
*
01680:  MOVLW  09
01682:  MOVLB  2
01684:  SUBWF  x85,F
01686:  BNC   16A0
01688:  MOVLW  02
0168A:  MOVWF  FEA
0168C:  MOVLW  85
0168E:  MOVWF  FE9
01690:  BCF    FD8.0
01692:  RRCF   FEF,F
01694:  MOVF   FEF,W
01696:  BZ    16A0
01698:  BRA    169C
0169A:  NOP   
0169C:  DECFSZ FEF,F
0169E:  BRA    169A
016A0:  MOVLB  0
016A2:  RETLW  00
.................... #use rs232(baud=9600,parity=N,xmit=PIN_C6,rcv=PIN_C7,bits=8) 
.................... #use i2c(Master,Fast,sda=PIN_C4,scl=PIN_C3) 
....................  
....................  
....................  
.................... #fuses  HS,NOWDT,NOPROTECT,NOLVP 
.................... #include <rtcc.c> 
.................... /////////////////////////////////////////////////////////////////////////////////////// 
.................... ///                                   DS1307_12.h                                   /// 
.................... ///                     Modified Driver for Real Time Clock DS1307                  /// 
.................... ///                             12 hour(AM PM) format                               /// 
.................... ///                                                                                 /// 
.................... /// ds1307_init() - Enable oscillator without clearing the seconds register         /// 
.................... ///                 used when PIC loses power and DS1307 run from 3V BAT            /// 
.................... ///               - Disable squarewave output                                       /// 
.................... ///                                                                                 /// 
.................... /// ds1307_set_date_time(day,mth,year,dow,hour,am_pm,min,sec)  Set the date/time    /// 
.................... ///                                                                                 /// 
.................... /// ds1307_get_date(day,mth,year,dow)               Get the date                    /// 
.................... ///                                                                                 /// 
.................... /// ds1307_get_time(hr,am_pm,min,sec)                     Get the time              /// 
.................... ///                                                                                 /// 
.................... ///  ****** am_pm returns                                                           /// 
.................... ///         1 for PM and 0 for AM                                                   /// 
.................... ///                                                                                 /// 
.................... /// Developed by Christian Rebogio                                                  /// 
.................... ///   suggestions and request please email me at                                    /// 
.................... ///   christian.rebogio@gmail.com                                                   /// 
.................... /// credits to http://www.ccsinfo.com/forum/viewtopic.php?t=23255                   /// 
.................... /////////////////////////////////////////////////////////////////////////////////////// 
....................  
....................  
.................... #define RTC_SDA  PIN_C4 
.................... #define RTC_SCL  PIN_C3 
....................  
.................... #use i2c(master, sda=RTC_SDA, scl=RTC_SCL,FORCE_SW) 
*
01162:  MOVLW  08
01164:  MOVWF  01
01166:  BRA    1168
01168:  BCF    F8B.3
0116A:  BCF    F94.3
0116C:  BRA    116E
0116E:  NOP   
01170:  MOVLB  2
01172:  RLCF   x84,F
01174:  BCF    F8B.4
01176:  BTFSC  FD8.0
01178:  BSF    F94.4
0117A:  BTFSS  FD8.0
0117C:  BCF    F94.4
0117E:  BSF    F94.3
01180:  BTFSS  F82.3
01182:  BRA    1180
01184:  DECFSZ 01,F
01186:  BRA    118A
01188:  BRA    118E
0118A:  MOVLB  0
0118C:  BRA    1166
0118E:  BRA    1190
01190:  BCF    F8B.3
01192:  BCF    F94.3
01194:  NOP   
01196:  BSF    F94.4
01198:  BRA    119A
0119A:  NOP   
0119C:  BRA    119E
0119E:  NOP   
011A0:  BSF    F94.3
011A2:  BTFSS  F82.3
011A4:  BRA    11A2
011A6:  CLRF   01
011A8:  BRA    11AA
011AA:  NOP   
011AC:  BTFSC  F82.4
011AE:  BSF    01.0
011B0:  BCF    F8B.3
011B2:  BCF    F94.3
011B4:  BCF    F8B.4
011B6:  BCF    F94.4
011B8:  MOVLB  0
011BA:  RETLW  00
011BC:  MOVLW  08
011BE:  MOVLB  2
011C0:  MOVWF  x80
011C2:  MOVFF  00,281
011C6:  BSF    F94.4
011C8:  BRA    11CA
011CA:  NOP   
011CC:  BSF    F94.3
011CE:  BTFSS  F82.3
011D0:  BRA    11CE
011D2:  BTFSC  F82.4
011D4:  BSF    FD8.0
011D6:  BTFSS  F82.4
011D8:  BCF    FD8.0
011DA:  RLCF   01,F
011DC:  BRA    11DE
011DE:  BCF    F94.3
011E0:  BCF    F8B.3
011E2:  DECFSZ x80,F
011E4:  BRA    11C6
011E6:  BSF    F94.4
011E8:  BRA    11EA
011EA:  NOP   
011EC:  BCF    F8B.4
011EE:  MOVF   x81,W
011F0:  BTFSS  FD8.2
011F2:  BCF    F94.4
011F4:  NOP   
011F6:  BSF    F94.3
011F8:  BTFSS  F82.3
011FA:  BRA    11F8
011FC:  BRA    11FE
011FE:  BCF    F8B.3
01200:  BCF    F94.3
01202:  BRA    1204
01204:  NOP   
01206:  BCF    F8B.4
01208:  BCF    F94.4
0120A:  MOVLB  0
0120C:  RETLW  00
....................  
.................... unsigned int8 bin2bcd(unsigned int8 binary_value); 
.................... unsigned int8 bcd2bin(unsigned int8 bcd_value); 
....................  
.................... void ds1307_init() 
.................... { 
....................    unsigned int8 sec = 0; 
....................    unsigned int8 hrs= 0; 
....................   
....................    i2c_start(); 
....................    i2c_write(0xD0); 
....................    i2c_write(0x00); 
....................    i2c_start(); 
....................    i2c_write(0xD1); 
....................    sec = i2c_read(0); 
....................    i2c_stop(); 
....................    bit_clear(sec,7); 
....................  
....................    i2c_start(); 
....................    i2c_write(0xD0); 
....................    i2c_write(0x00);  
....................    i2c_write(sec);    
....................    i2c_start(); 
....................    i2c_write(0xD0); 
....................    i2c_write(0x07);      
....................    i2c_write(0x80);      
....................    i2c_stop(); 
.................... } 
....................  
.................... void ds1307_set_date_time(unsigned int8 day, unsigned int8 mth, unsigned int8 year, unsigned int8 dow, unsigned int8 hr,int1 am_pm, unsigned int8 min, unsigned int8 sec) 
.................... { 
....................   sec &= 0x7F; 
*
01508:  MOVLB  2
0150A:  BCF    x82.7
....................   hr &= 0x1F; 
0150C:  MOVLW  1F
0150E:  ANDWF  x7F,F
....................   hr=bin2bcd(hr); 
01510:  MOVFF  27F,283
01514:  MOVLB  0
01516:  RCALL  14E0
01518:  MOVFF  01,27F
....................   bit_set(hr,6); 
0151C:  MOVLB  2
0151E:  BSF    x7F.6
....................   if(am_pm){ 
01520:  MOVF   x80,F
01522:  BZ    1528
....................       bit_set(hr,5); 
01524:  BSF    x7F.5
....................   } 
....................   else{ 
01526:  BRA    152A
....................       bit_clear(hr,5); 
01528:  BCF    x7F.5
....................   } 
....................   i2c_start(); 
0152A:  BSF    F94.4
0152C:  BRA    152E
0152E:  BSF    F94.3
01530:  BRA    1532
01532:  NOP   
01534:  BCF    F8B.4
01536:  BCF    F94.4
01538:  BRA    153A
0153A:  BCF    F8B.3
0153C:  BCF    F94.3
....................   i2c_write(0xD0);          
0153E:  MOVLW  D0
01540:  MOVWF  x84
01542:  MOVLB  0
01544:  RCALL  1162
....................   i2c_write(0x00);          
01546:  MOVLB  2
01548:  CLRF   x84
0154A:  MOVLB  0
0154C:  RCALL  1162
....................   i2c_write(bin2bcd(sec));    
0154E:  MOVFF  282,283
01552:  RCALL  14E0
01554:  MOVFF  01,283
01558:  MOVFF  01,284
0155C:  RCALL  1162
....................   i2c_write(bin2bcd(min));  
0155E:  MOVFF  281,283
01562:  RCALL  14E0
01564:  MOVFF  01,283
01568:  MOVFF  01,284
0156C:  RCALL  1162
....................   i2c_write(hr);  
0156E:  MOVFF  27F,284
01572:  RCALL  1162
....................   i2c_write(bin2bcd(dow));    
01574:  MOVFF  27E,283
01578:  RCALL  14E0
0157A:  MOVFF  01,283
0157E:  MOVFF  01,284
01582:  RCALL  1162
....................   i2c_write(bin2bcd(day));  
01584:  MOVFF  27B,283
01588:  RCALL  14E0
0158A:  MOVFF  01,283
0158E:  MOVFF  01,284
01592:  RCALL  1162
....................   i2c_write(bin2bcd(mth));    
01594:  MOVFF  27C,283
01598:  RCALL  14E0
0159A:  MOVFF  01,283
0159E:  MOVFF  01,284
015A2:  RCALL  1162
....................   i2c_write(bin2bcd(year));      
015A4:  MOVFF  27D,283
015A8:  RCALL  14E0
015AA:  MOVFF  01,283
015AE:  MOVFF  01,284
015B2:  RCALL  1162
....................   i2c_write(0x80);        
015B4:  MOVLW  80
015B6:  MOVLB  2
015B8:  MOVWF  x84
015BA:  MOVLB  0
015BC:  RCALL  1162
....................   i2c_stop(); 
015BE:  BCF    F94.4
015C0:  NOP   
015C2:  BSF    F94.3
015C4:  BTFSS  F82.3
015C6:  BRA    15C4
015C8:  BRA    15CA
015CA:  BRA    15CC
015CC:  NOP   
015CE:  BSF    F94.4
015D0:  BRA    15D2
.................... } 
015D2:  GOTO   3FA6 (RETURN)
....................  
.................... void ds1307_get_date(unsigned int8 &day, unsigned int8 &mth, unsigned int8 &year, unsigned int8 &dow) 
.................... { 
....................   i2c_start(); 
*
012E4:  BSF    F94.4
012E6:  BRA    12E8
012E8:  BSF    F94.3
012EA:  BRA    12EC
012EC:  NOP   
012EE:  BCF    F8B.4
012F0:  BCF    F94.4
012F2:  BRA    12F4
012F4:  BCF    F8B.3
012F6:  BCF    F94.3
....................   i2c_write(0xD0); 
012F8:  MOVLW  D0
012FA:  MOVLB  2
012FC:  MOVWF  x84
012FE:  MOVLB  0
01300:  RCALL  1162
....................   i2c_write(0x03); 
01302:  MOVLW  03
01304:  MOVLB  2
01306:  MOVWF  x84
01308:  MOVLB  0
0130A:  RCALL  1162
....................   i2c_start(); 
0130C:  BSF    F94.4
0130E:  BRA    1310
01310:  BSF    F94.3
01312:  BRA    1314
01314:  NOP   
01316:  BTFSS  F82.3
01318:  BRA    1316
0131A:  BCF    F8B.4
0131C:  BCF    F94.4
0131E:  BRA    1320
01320:  BCF    F8B.3
01322:  BCF    F94.3
....................   i2c_write(0xD1); 
01324:  MOVLW  D1
01326:  MOVLB  2
01328:  MOVWF  x84
0132A:  MOVLB  0
0132C:  RCALL  1162
....................   dow  = bcd2bin(i2c_read() & 0x7f);  
0132E:  MOVLW  01
01330:  MOVWF  00
01332:  RCALL  11BC
01334:  MOVF   01,W
01336:  ANDLW  7F
01338:  MOVLB  2
0133A:  MOVWF  x7B
0133C:  MOVWF  x80
0133E:  MOVLB  0
01340:  RCALL  120E
01342:  MOVFF  01,10
....................   day  = bcd2bin(i2c_read() & 0x3f); 
01346:  MOVLW  01
01348:  MOVWF  00
0134A:  RCALL  11BC
0134C:  MOVF   01,W
0134E:  ANDLW  3F
01350:  MOVLB  2
01352:  MOVWF  x7B
01354:  MOVWF  x80
01356:  MOVLB  0
01358:  RCALL  120E
0135A:  MOVFF  01,0E
....................   mth  = bcd2bin(i2c_read() & 0x1f);  
0135E:  MOVLW  01
01360:  MOVWF  00
01362:  RCALL  11BC
01364:  MOVF   01,W
01366:  ANDLW  1F
01368:  MOVLB  2
0136A:  MOVWF  x7B
0136C:  MOVWF  x80
0136E:  MOVLB  0
01370:  RCALL  120E
01372:  MOVFF  01,0F
....................   year = bcd2bin(i2c_read(0));        
01376:  CLRF   00
01378:  RCALL  11BC
0137A:  MOVFF  01,27B
0137E:  MOVFF  01,280
01382:  RCALL  120E
01384:  MOVFF  01,11
....................   i2c_stop(); 
01388:  BCF    F94.4
0138A:  NOP   
0138C:  BSF    F94.3
0138E:  BTFSS  F82.3
01390:  BRA    138E
01392:  BRA    1394
01394:  BRA    1396
01396:  NOP   
01398:  BSF    F94.4
0139A:  BRA    139C
.................... } 
....................  
.................... void ds1307_get_time(unsigned int8 &hr, int1 &am_pm, unsigned int8 &min, unsigned int8 &sec) 
.................... { 
....................   i2c_start(); 
*
01238:  BSF    F94.4
0123A:  BRA    123C
0123C:  BSF    F94.3
0123E:  BRA    1240
01240:  NOP   
01242:  BCF    F8B.4
01244:  BCF    F94.4
01246:  BRA    1248
01248:  BCF    F8B.3
0124A:  BCF    F94.3
....................   i2c_write(0xD0); 
0124C:  MOVLW  D0
0124E:  MOVLB  2
01250:  MOVWF  x84
01252:  MOVLB  0
01254:  RCALL  1162
....................   i2c_write(0x00);    
01256:  MOVLB  2
01258:  CLRF   x84
0125A:  MOVLB  0
0125C:  RCALL  1162
....................   i2c_start(); 
0125E:  BSF    F94.4
01260:  BRA    1262
01262:  BSF    F94.3
01264:  BRA    1266
01266:  NOP   
01268:  BTFSS  F82.3
0126A:  BRA    1268
0126C:  BCF    F8B.4
0126E:  BCF    F94.4
01270:  BRA    1272
01272:  BCF    F8B.3
01274:  BCF    F94.3
....................   i2c_write(0xD1); 
01276:  MOVLW  D1
01278:  MOVLB  2
0127A:  MOVWF  x84
0127C:  MOVLB  0
0127E:  RCALL  1162
....................   sec = bcd2bin(i2c_read() & 0x7f); 
01280:  MOVLW  01
01282:  MOVWF  00
01284:  RCALL  11BC
01286:  MOVF   01,W
01288:  ANDLW  7F
0128A:  MOVLB  2
0128C:  MOVWF  x7B
0128E:  MOVWF  x80
01290:  MOVLB  0
01292:  RCALL  120E
01294:  MOVFF  01,0C
....................   min = bcd2bin(i2c_read() & 0x7f); 
01298:  MOVLW  01
0129A:  MOVWF  00
0129C:  RCALL  11BC
0129E:  MOVF   01,W
012A0:  ANDLW  7F
012A2:  MOVLB  2
012A4:  MOVWF  x7B
012A6:  MOVWF  x80
012A8:  MOVLB  0
012AA:  RCALL  120E
012AC:  MOVFF  01,0B
....................   hr = i2c_read(0); 
012B0:  CLRF   00
012B2:  RCALL  11BC
012B4:  MOVFF  01,0A
....................   i2c_stop(); 
012B8:  BCF    F94.4
012BA:  NOP   
012BC:  BSF    F94.3
012BE:  BTFSS  F82.3
012C0:  BRA    12BE
012C2:  BRA    12C4
012C4:  BRA    12C6
012C6:  NOP   
012C8:  BSF    F94.4
012CA:  BRA    12CC
....................   am_pm = bit_test(hr,5); 
012CC:  BCF    26.0
012CE:  BTFSC  0A.5
012D0:  BSF    26.0
....................   hr  = bcd2bin(hr & 0x1f); 
012D2:  MOVF   0A,W
012D4:  ANDLW  1F
012D6:  MOVLB  2
012D8:  MOVWF  x7B
012DA:  MOVWF  x80
012DC:  MOVLB  0
012DE:  RCALL  120E
012E0:  MOVFF  01,0A
.................... } 
....................  
.................... unsigned int8 bin2bcd(unsigned int8 binary_value) 
.................... { 
....................   unsigned int8 temp; 
....................   unsigned int8 retval; 
....................  
....................   temp = binary_value; 
*
014E0:  MOVFF  283,284
....................   retval = 0; 
014E4:  MOVLB  2
014E6:  CLRF   x85
....................  
....................   while(true) 
....................   { 
....................     if(temp >= 10) 
014E8:  MOVF   x84,W
014EA:  SUBLW  09
014EC:  BC    14F8
....................     { 
....................       temp -= 10; 
014EE:  MOVLW  0A
014F0:  SUBWF  x84,F
....................       retval += 0x10; 
014F2:  MOVLW  10
014F4:  ADDWF  x85,F
....................     } 
....................     else 
014F6:  BRA    14FE
....................     { 
....................       retval += temp; 
014F8:  MOVF   x84,W
014FA:  ADDWF  x85,F
....................       break; 
014FC:  BRA    1500
....................     } 
....................   } 
014FE:  BRA    14E8
....................  
....................   return(retval); 
01500:  MOVFF  285,01
.................... } 
01504:  MOVLB  0
01506:  RETLW  00
....................  
.................... unsigned int8 bcd2bin(unsigned int8 bcd_value) 
.................... { 
....................   unsigned int8 temp; 
....................   temp = bcd_value; 
*
0120E:  MOVFF  280,281
....................   temp >>= 1; 
01212:  BCF    FD8.0
01214:  MOVLB  2
01216:  RRCF   x81,F
....................   temp &= 0x78; 
01218:  MOVLW  78
0121A:  ANDWF  x81,F
....................   return(temp + (temp >> 2) + (bcd_value & 0x0f)); 
0121C:  RRCF   x81,W
0121E:  MOVWF  00
01220:  RRCF   00,F
01222:  MOVLW  3F
01224:  ANDWF  00,F
01226:  MOVF   00,W
01228:  ADDWF  x81,W
0122A:  MOVWF  x82
0122C:  MOVF   x80,W
0122E:  ANDLW  0F
01230:  ADDWF  x82,W
01232:  MOVWF  01
.................... }  
01234:  MOVLB  0
01236:  RETLW  00
....................  
.................... #include <HDM64GS122.C> 
.................... ///////////////////////////////////////////////////////////////////////// 
.................... ////                           HDM64GS12.c                           //// 
.................... ////                                                                 //// 
.................... //// This file contains drivers for using a Hantronix HDM64GS12 with //// 
.................... //// a KS0108 display controller. The HDM64GS12 is 128 by 64 pixels. //// 
.................... //// The driver treats the upper left pixel as (0,0).                //// 
.................... ////                                                                 //// 
.................... //// Use #define FAST_GLCD if the target chip has at least 1k of RAM //// 
.................... //// to decrease the time it takes to update the display.            //// 
.................... //// glcd_update() must then be called to update the display after   //// 
.................... //// changing the pixel information.                                 //// 
.................... //// See ex_glcd.c for suggested usage.                              //// 
.................... //// See KS0108.c for controlling a single 64 by 64 display          //// 
.................... ///////////////////////////////////////////////////////////////////////// 
.................... ////                                                                 //// 
.................... //// LCD Pin connections:                                            //// 
.................... //// (These can be changed as needed in the following defines).      //// 
.................... ////  * 1: VSS is connected to GND                                   //// 
.................... ////  * 2: VDD is connected to +5V                                   //// 
.................... ////  * 3: V0  - LCD operating voltage (Constrast adjustment)        //// 
.................... ////  * 4: D/I - Data or Instruction is connected to B2              //// 
.................... ////  * 5: R/W - Read or Write is connected to B4                    //// 
.................... ////  * 6: Enable is connected to B5                                 //// 
.................... ////  *7-14: Data Bus 0 to 7 is connected to port d                  //// 
.................... ////  *15: Chip Select 1 is connected to B0                          //// 
.................... ////  *16: Chip Select 2 is connected to B1                          //// 
.................... ////  *17: Reset is connected to C0                                  //// 
.................... ////  *18: Negative voltage is also connected to the 20k Ohm POT     //// 
.................... ////  *19: Positive voltage for LED backlight is connected to +5V    //// 
.................... ////  *20: Negavtive voltage for LED backlight is connected to GND   //// 
.................... ////                                                                 //// 
.................... ///////////////////////////////////////////////////////////////////////// 
.................... ////                                                                 //// 
.................... ////  glcd_init(mode)                                                //// 
.................... ////     * Must be called before any other function.                 //// 
.................... ////       - mode can be ON or OFF to turn the LCD on or off         //// 
.................... ////                                                                 //// 
.................... ////  glcd_pixel(x,y,color)                                          //// 
.................... ////     * Sets the pixel to the given color.                        //// 
.................... ////       - color can be ON or OFF                                  //// 
.................... ////                                                                 //// 
.................... ////  glcd_fillScreen(color)                                         //// 
.................... ////     * Fills the entire LCD with the given color.                //// 
.................... ////       - color can be ON or OFF                                  //// 
.................... ////                                                                 //// 
.................... ////  glcd_update()                                                  //// 
.................... ////     * Write the display data stored in RAM to the LCD           //// 
.................... ////     * Only available if FAST_GLCD is defined                    //// 
.................... ////                                                                 //// 
.................... ///////////////////////////////////////////////////////////////////////// 
.................... ////        (C) Copyright 1996, 2004 Custom Computer Services        //// 
.................... //// This source code may only be used by licensed users of the CCS  //// 
.................... //// C compiler.  This source code may only be distributed to other  //// 
.................... //// licensed users of the CCS C compiler.  No other use,            //// 
.................... //// reproduction or distribution is permitted without written       //// 
.................... //// permission.  Derivative programs created using this software    //// 
.................... //// in object code form are not restricted in any way.              //// 
.................... ///////////////////////////////////////////////////////////////////////// 
....................  
....................  
....................  
.................... #ifndef HDM64GS12 
.................... #define HDM64GS12 
....................  
.................... #ifndef GLCD_WIDTH 
.................... #define GLCD_WIDTH   128 
.................... #endif 
....................  
.................... #ifndef GLCD_CS1 
.................... #define GLCD_CS1     PIN_B4   // Chip Selection 1 
.................... #endif 
....................  
.................... #ifndef GLCD_CS2 
.................... #define GLCD_CS2     PIN_B5   // Chip Selection 2 
.................... #endif 
....................  
.................... #ifndef GLCD_DI 
.................... #define GLCD_DI      PIN_B6   // Data or Instruction input 
.................... #endif 
....................  
.................... #ifndef GLCD_RW 
.................... #define GLCD_RW      PIN_B7   // Read/Write 
.................... #endif 
....................  
.................... #ifndef GLCD_E 
.................... #define GLCD_E       PIN_C5   // Enable 
.................... #endif 
....................  
.................... #ifndef GLCD_RST 
.................... #define GLCD_RST     PIN_C0   // Reset 
.................... #endif 
....................  
.................... #define GLCD_LEFT    0 
.................... #define GLCD_RIGHT   1 
....................  
.................... #ifndef ON 
.................... #define ON           1 
.................... #endif 
....................  
.................... #ifndef OFF 
.................... #define OFF          0 
.................... #endif 
....................  
.................... ///////////////////////////////////////////////////////////////////////// 
.................... // Function Prototypes 
.................... ///////////////////////////////////////////////////////////////////////// 
.................... void glcd_init(int1 mode); 
.................... void glcd_pixel(int8 x, int8 y, int1 color); 
.................... void glcd_fillScreen(int1 color); 
.................... void glcd_writeByte(int1 side, BYTE data); 
.................... BYTE glcd_readByte(int1 side); 
.................... void glcd_update(); 
.................... ///////////////////////////////////////////////////////////////////////// 
....................  
.................... #ifdef FAST_GLCD 
.................... struct 
.................... { 
....................    int8 left[512]; 
....................    int8 right[512]; 
.................... } displayData; 
.................... #endif 
....................  
....................  
.................... // Purpose:       Initialize the LCD. 
.................... //                Call before using any other LCD function. 
.................... // Inputs:        OFF - Turns the LCD off 
.................... //                ON  - Turns the LCD on 
.................... void glcd_init(int1 mode) 
.................... { 
....................    // Initialze some pins 
....................    output_high(GLCD_RST); 
*
00AF0:  BCF    F94.0
00AF2:  BSF    F8B.0
....................    output_low(GLCD_E); 
00AF4:  BCF    F94.5
00AF6:  BCF    F8B.5
....................    output_low(GLCD_CS1); 
00AF8:  BCF    F93.4
00AFA:  BCF    F8A.4
....................    output_low(GLCD_CS2); 
00AFC:  BCF    F93.5
00AFE:  BCF    F8A.5
....................  
....................    output_low(GLCD_DI);                 // Set for instruction 
00B00:  BCF    F93.6
00B02:  BCF    F8A.6
....................    glcd_writeByte(GLCD_LEFT,  0xC0);    // Specify first RAM line at the top 
00B04:  MOVLB  2
00B06:  CLRF   x9D
00B08:  MOVLW  C0
00B0A:  MOVWF  x9E
00B0C:  MOVLB  0
00B0E:  RCALL  0A2C
....................    glcd_writeByte(GLCD_RIGHT, 0xC0);    //   of the screen 
00B10:  MOVLW  01
00B12:  MOVLB  2
00B14:  MOVWF  x9D
00B16:  MOVLW  C0
00B18:  MOVWF  x9E
00B1A:  MOVLB  0
00B1C:  RCALL  0A2C
....................    glcd_writeByte(GLCD_LEFT,  0x40);    // Set the column address to 0 
00B1E:  MOVLB  2
00B20:  CLRF   x9D
00B22:  MOVLW  40
00B24:  MOVWF  x9E
00B26:  MOVLB  0
00B28:  RCALL  0A2C
....................    glcd_writeByte(GLCD_RIGHT, 0x40); 
00B2A:  MOVLW  01
00B2C:  MOVLB  2
00B2E:  MOVWF  x9D
00B30:  MOVLW  40
00B32:  MOVWF  x9E
00B34:  MOVLB  0
00B36:  RCALL  0A2C
....................    glcd_writeByte(GLCD_LEFT,  0xB8);    // Set the page address to 0 
00B38:  MOVLB  2
00B3A:  CLRF   x9D
00B3C:  MOVLW  B8
00B3E:  MOVWF  x9E
00B40:  MOVLB  0
00B42:  RCALL  0A2C
....................    glcd_writeByte(GLCD_RIGHT, 0xB8); 
00B44:  MOVLW  01
00B46:  MOVLB  2
00B48:  MOVWF  x9D
00B4A:  MOVLW  B8
00B4C:  MOVWF  x9E
00B4E:  MOVLB  0
00B50:  RCALL  0A2C
....................  
....................    if(mode == ON) 
00B52:  MOVLB  2
00B54:  DECFSZ x7B,W
00B56:  BRA    0B74
....................    { 
....................       glcd_writeByte(GLCD_LEFT,  0x3F); // Turn the display on 
00B58:  CLRF   x9D
00B5A:  MOVLW  3F
00B5C:  MOVWF  x9E
00B5E:  MOVLB  0
00B60:  RCALL  0A2C
....................       glcd_writeByte(GLCD_RIGHT, 0x3F); 
00B62:  MOVLW  01
00B64:  MOVLB  2
00B66:  MOVWF  x9D
00B68:  MOVLW  3F
00B6A:  MOVWF  x9E
00B6C:  MOVLB  0
00B6E:  RCALL  0A2C
....................    } 
....................    else 
00B70:  BRA    0B8C
00B72:  MOVLB  2
....................    { 
....................       glcd_writeByte(GLCD_LEFT,  0x3E); // Turn the display off 
00B74:  CLRF   x9D
00B76:  MOVLW  3E
00B78:  MOVWF  x9E
00B7A:  MOVLB  0
00B7C:  RCALL  0A2C
....................       glcd_writeByte(GLCD_RIGHT, 0x3E); 
00B7E:  MOVLW  01
00B80:  MOVLB  2
00B82:  MOVWF  x9D
00B84:  MOVLW  3E
00B86:  MOVWF  x9E
00B88:  MOVLB  0
00B8A:  RCALL  0A2C
....................    } 
....................  
....................    glcd_fillScreen(OFF);                // Clear the display 
00B8C:  MOVLB  2
00B8E:  CLRF   x7C
00B90:  MOVLB  0
00B92:  RCALL  0A62
....................  
....................    #ifdef FAST_GLCD 
....................    glcd_update(); 
....................    #endif 
.................... } 
00B94:  GOTO   24BA (RETURN)
....................  
....................  
.................... // Purpose:    Update the LCD with data from the display arrays 
.................... #ifdef FAST_GLCD 
.................... void glcd_update() 
.................... { 
....................    int8 i, j; 
....................    int8 *p1, *p2; 
....................  
....................    p1 = displayData.left; 
....................    p2 = displayData.right; 
....................  
....................    // Loop through the vertical pages 
....................    for(i = 0; i < 8; ++i) 
....................    { 
....................       output_low(GLCD_DI);                      // Set for instruction 
....................       glcd_writeByte(GLCD_LEFT, 0x40);          // Set horizontal address to 0 
....................       glcd_writeByte(GLCD_RIGHT, 0x40); 
....................       glcd_writeByte(GLCD_LEFT, i | 0xB8);      // Set page address 
....................       glcd_writeByte(GLCD_RIGHT, i | 0xB8); 
....................       output_high(GLCD_DI);                     // Set for data 
....................  
....................       // Loop through the horizontal sections 
....................       for(j = 0; j < 64; ++j) 
....................       { 
....................          glcd_writeByte(GLCD_LEFT, *p1++);      // Turn pixels on or off 
....................          glcd_writeByte(GLCD_RIGHT, *p2++);     // Turn pixels on or off 
....................       } 
....................    } 
.................... } 
.................... #endif 
....................  
....................  
.................... // Purpose:    Turn a pixel on a graphic LCD on or off 
.................... // Inputs:     1) x - the x coordinate of the pixel 
.................... //             2) y - the y coordinate of the pixel 
.................... //             3) color - ON or OFF 
.................... void glcd_pixel(int8 x, int8 y, int1 color) 
.................... #ifdef FAST_GLCD 
.................... { 
....................    int8* p; 
....................    int16 temp; 
....................    temp =  y/8; 
....................    temp *= 64; 
....................    temp += x; 
....................  
....................    if(x > 63) 
....................    { 
....................       p = displayData.right + temp - 64; 
....................    } 
....................    else 
....................    { 
....................       p = displayData.left + temp; 
....................    } 
....................  
....................    if(color) 
....................    { 
....................       bit_set(*p, y%8); 
....................    } 
....................    else 
....................    { 
....................       bit_clear(*p, y%8); 
....................    } 
.................... } 
.................... #else 
.................... { 
*
00BF8:  MOVLB  2
00BFA:  BCF    x9A.0
....................    BYTE data; 
....................    int1 side = GLCD_LEFT;  // Stores which chip to use on the LCD 
....................  
....................    if(x > 63)              // Check for first or second display area 
00BFC:  MOVF   x96,W
00BFE:  SUBLW  3F
00C00:  BC    0C08
....................    { 
....................       x -= 64; 
00C02:  MOVLW  40
00C04:  SUBWF  x96,F
....................       side = GLCD_RIGHT; 
00C06:  BSF    x9A.0
....................    } 
....................  
....................    output_low(GLCD_DI);                         // Set for instruction 
00C08:  BCF    F93.6
00C0A:  BCF    F8A.6
....................    bit_clear(x,7);                              // Clear the MSB. Part of an instruction code 
00C0C:  BCF    x96.7
....................    bit_set(x,6);                                // Set bit 6. Also part of an instruction code 
00C0E:  BSF    x96.6
....................    glcd_writeByte(side, x);                     // Set the horizontal address 
00C10:  MOVLW  00
00C12:  BTFSC  x9A.0
00C14:  MOVLW  01
00C16:  MOVWF  x9D
00C18:  MOVFF  296,29E
00C1C:  MOVLB  0
00C1E:  RCALL  0A2C
....................    glcd_writeByte(side, (y/8 & 0xBF) | 0xB8);   // Set the vertical page address 
00C20:  MOVLW  00
00C22:  MOVLB  2
00C24:  BTFSC  x9A.0
00C26:  MOVLW  01
00C28:  MOVWF  x9B
00C2A:  RRCF   x97,W
00C2C:  MOVWF  00
00C2E:  RRCF   00,F
00C30:  RRCF   00,F
00C32:  MOVLW  1F
00C34:  ANDWF  00,F
00C36:  MOVF   00,W
00C38:  ANDLW  BF
00C3A:  IORLW  B8
00C3C:  MOVWF  x9C
00C3E:  MOVFF  29B,29D
00C42:  MOVWF  x9E
00C44:  MOVLB  0
00C46:  RCALL  0A2C
....................    output_high(GLCD_DI);                        // Set for data 
00C48:  BCF    F93.6
00C4A:  BSF    F8A.6
....................    glcd_readByte(side);                         // Need two reads to get data 
00C4C:  MOVLW  00
00C4E:  MOVLB  2
00C50:  BTFSC  x9A.0
00C52:  MOVLW  01
00C54:  MOVWF  x9C
00C56:  MOVLB  0
00C58:  RCALL  0BBA
....................    data = glcd_readByte(side);                  //  at new address 
00C5A:  MOVLW  00
00C5C:  MOVLB  2
00C5E:  BTFSC  x9A.0
00C60:  MOVLW  01
00C62:  MOVWF  x9C
00C64:  MOVLB  0
00C66:  RCALL  0BBA
00C68:  MOVFF  01,299
....................  
....................    if(color == ON) 
00C6C:  MOVLB  2
00C6E:  DECFSZ x98,W
00C70:  BRA    0C90
....................       bit_set(data, y%8);        // Turn the pixel on 
00C72:  MOVF   x97,W
00C74:  ANDLW  07
00C76:  MOVWF  x9B
00C78:  MOVLW  01
00C7A:  MOVWF  00
00C7C:  MOVF   x9B,W
00C7E:  MOVWF  01
00C80:  BZ    0C8A
00C82:  BCF    FD8.0
00C84:  RLCF   00,F
00C86:  DECFSZ 01,F
00C88:  BRA    0C82
00C8A:  MOVF   00,W
00C8C:  IORWF  x99,F
....................    else                          // or 
00C8E:  BRA    0CAE
....................       bit_clear(data, y%8);      // turn the pixel off 
00C90:  MOVF   x97,W
00C92:  ANDLW  07
00C94:  MOVWF  x9B
00C96:  MOVLW  01
00C98:  MOVWF  00
00C9A:  MOVF   x9B,W
00C9C:  MOVWF  01
00C9E:  BZ    0CA8
00CA0:  BCF    FD8.0
00CA2:  RLCF   00,F
00CA4:  DECFSZ 01,F
00CA6:  BRA    0CA0
00CA8:  MOVF   00,W
00CAA:  XORLW  FF
00CAC:  ANDWF  x99,F
....................  
....................    output_low(GLCD_DI);          // Set for instruction 
00CAE:  BCF    F93.6
00CB0:  BCF    F8A.6
....................    glcd_writeByte(side, x);      // Set the horizontal address 
00CB2:  MOVLW  00
00CB4:  BTFSC  x9A.0
00CB6:  MOVLW  01
00CB8:  MOVWF  x9D
00CBA:  MOVFF  296,29E
00CBE:  MOVLB  0
00CC0:  RCALL  0A2C
....................    output_high(GLCD_DI);         // Set for data 
00CC2:  BCF    F93.6
00CC4:  BSF    F8A.6
....................    glcd_writeByte(side, data);   // Write the pixel data 
00CC6:  MOVLW  00
00CC8:  MOVLB  2
00CCA:  BTFSC  x9A.0
00CCC:  MOVLW  01
00CCE:  MOVWF  x9D
00CD0:  MOVFF  299,29E
00CD4:  MOVLB  0
00CD6:  RCALL  0A2C
.................... } 
00CD8:  RETLW  00
.................... #endif 
....................  
....................  
.................... // Purpose:    Fill the LCD screen with the passed in color 
.................... // Inputs:     ON  - turn all the pixels on 
.................... //             OFF - turn all the pixels off 
.................... void glcd_fillScreen(int1 color) 
.................... #ifdef FAST_GLCD 
.................... { 
....................    int8  data; 
....................    int8  *p1, *p2; 
....................    int16 i; 
....................  
....................    p1 = displayData.left; 
....................    p2 = displayData.right; 
....................    data = 0xFF * color; 
....................  
....................    for(i=0; i<512; ++i) 
....................    { 
....................       *p1++ = data; 
....................       *p2++ = data; 
....................    } 
.................... } 
.................... #else 
.................... { 
....................    int8 i, j; 
....................  
....................    // Loop through the vertical pages 
....................    for(i = 0; i < 8; ++i) 
*
00A62:  MOVLB  2
00A64:  CLRF   x7D
00A66:  MOVF   x7D,W
00A68:  SUBLW  07
00A6A:  BNC   0AEC
....................    { 
....................       output_low(GLCD_DI);                      // Set for instruction 
00A6C:  BCF    F93.6
00A6E:  BCF    F8A.6
....................       glcd_writeByte(GLCD_LEFT, 0b01000000);    // Set horizontal address to 0 
00A70:  CLRF   x9D
00A72:  MOVLW  40
00A74:  MOVWF  x9E
00A76:  MOVLB  0
00A78:  RCALL  0A2C
....................       glcd_writeByte(GLCD_RIGHT, 0b01000000); 
00A7A:  MOVLW  01
00A7C:  MOVLB  2
00A7E:  MOVWF  x9D
00A80:  MOVLW  40
00A82:  MOVWF  x9E
00A84:  MOVLB  0
00A86:  RCALL  0A2C
....................       glcd_writeByte(GLCD_LEFT, i | 0b10111000);// Set page address 
00A88:  MOVLB  2
00A8A:  MOVF   x7D,W
00A8C:  IORLW  B8
00A8E:  MOVWF  x7F
00A90:  CLRF   x9D
00A92:  MOVWF  x9E
00A94:  MOVLB  0
00A96:  RCALL  0A2C
....................       glcd_writeByte(GLCD_RIGHT, i | 0b10111000); 
00A98:  MOVLB  2
00A9A:  MOVF   x7D,W
00A9C:  IORLW  B8
00A9E:  MOVWF  x7F
00AA0:  MOVLW  01
00AA2:  MOVWF  x9D
00AA4:  MOVFF  27F,29E
00AA8:  MOVLB  0
00AAA:  RCALL  0A2C
....................       output_high(GLCD_DI);                     // Set for data 
00AAC:  BCF    F93.6
00AAE:  BSF    F8A.6
....................  
....................       // Loop through the horizontal sections 
....................       for(j = 0; j < 64; ++j) 
00AB0:  MOVLB  2
00AB2:  CLRF   x7E
00AB4:  MOVF   x7E,W
00AB6:  SUBLW  3F
00AB8:  BNC   0AE8
....................       { 
....................          glcd_writeByte(GLCD_LEFT, 0xFF*color);  // Turn pixels on or off 
00ABA:  MOVF   x7C,W
00ABC:  MULLW  FF
00ABE:  MOVFF  FF3,27F
00AC2:  CLRF   x9D
00AC4:  MOVFF  27F,29E
00AC8:  MOVLB  0
00ACA:  RCALL  0A2C
....................          glcd_writeByte(GLCD_RIGHT, 0xFF*color); // Turn pixels on or off 
00ACC:  MOVLB  2
00ACE:  MOVF   x7C,W
00AD0:  MULLW  FF
00AD2:  MOVFF  FF3,27F
00AD6:  MOVLW  01
00AD8:  MOVWF  x9D
00ADA:  MOVFF  27F,29E
00ADE:  MOVLB  0
00AE0:  RCALL  0A2C
....................       } 
00AE2:  MOVLB  2
00AE4:  INCF   x7E,F
00AE6:  BRA    0AB4
....................    } 
00AE8:  INCF   x7D,F
00AEA:  BRA    0A66
.................... } 
00AEC:  MOVLB  0
00AEE:  RETLW  00
.................... #endif 
....................  
....................  
.................... // Purpose:    Write a byte of data to the specified chip 
.................... // Inputs:     1) chipSelect - which chip to write the data to 
.................... //             2) data - the byte of data to write 
.................... void glcd_writeByte(int1 side, BYTE data) 
.................... { 
....................    if(side)                   // Choose which side to write to 
*
00A2C:  MOVLB  2
00A2E:  MOVF   x9D,F
00A30:  BZ    0A38
....................       output_high(GLCD_CS2); 
00A32:  BCF    F93.5
00A34:  BSF    F8A.5
....................    else 
00A36:  BRA    0A3C
....................       output_high(GLCD_CS1); 
00A38:  BCF    F93.4
00A3A:  BSF    F8A.4
....................  
....................    output_low(GLCD_RW);       // Set for writing 
00A3C:  BCF    F93.7
00A3E:  BCF    F8A.7
....................    output_d(data);            // Put the data on the port 
00A40:  CLRF   F95
00A42:  MOVFF  29E,F8C
....................    delay_cycles(1); 
00A46:  NOP   
....................    output_high(GLCD_E);       // Pulse the enable pin 
00A48:  BCF    F94.5
00A4A:  BSF    F8B.5
....................    delay_cycles(5); 
00A4C:  BRA    0A4E
00A4E:  BRA    0A50
00A50:  NOP   
....................    output_low(GLCD_E); 
00A52:  BCF    F94.5
00A54:  BCF    F8B.5
....................  
....................    output_low(GLCD_CS1);      // Reset the chip select lines 
00A56:  BCF    F93.4
00A58:  BCF    F8A.4
....................    output_low(GLCD_CS2); 
00A5A:  BCF    F93.5
00A5C:  BCF    F8A.5
.................... } 
00A5E:  MOVLB  0
00A60:  RETLW  00
....................  
....................  
.................... // Purpose:    Reads a byte of data from the specified chip 
.................... // Ouputs:     A byte of data read from the chip 
.................... BYTE glcd_readByte(int1 side) 
.................... { 
....................    BYTE data;                 // Stores the data read from the LCD 
....................  
....................    set_tris_d(0xFF);          // Set port d to input 
*
00BBA:  MOVLW  FF
00BBC:  MOVWF  F95
....................    output_high(GLCD_RW);      // Set for reading 
00BBE:  BCF    F93.7
00BC0:  BSF    F8A.7
....................  
....................    if(side)                   // Choose which side to write to 
00BC2:  MOVLB  2
00BC4:  MOVF   x9C,F
00BC6:  BZ    0BCE
....................       output_high(GLCD_CS2); 
00BC8:  BCF    F93.5
00BCA:  BSF    F8A.5
....................    else 
00BCC:  BRA    0BD2
....................       output_high(GLCD_CS1); 
00BCE:  BCF    F93.4
00BD0:  BSF    F8A.4
....................  
....................    delay_cycles(1); 
00BD2:  NOP   
....................    output_high(GLCD_E);       // Pulse the enable pin 
00BD4:  BCF    F94.5
00BD6:  BSF    F8B.5
....................    delay_cycles(4); 
00BD8:  BRA    0BDA
00BDA:  BRA    0BDC
....................    data = input_d();          // Get the data from the display's output register 
00BDC:  MOVLW  FF
00BDE:  MOVWF  F95
00BE0:  MOVFF  F83,29D
....................    output_low(GLCD_E); 
00BE4:  BCF    F94.5
00BE6:  BCF    F8B.5
....................  
....................    output_low(GLCD_CS1);      // Reset the chip select lines 
00BE8:  BCF    F93.4
00BEA:  BCF    F8A.4
....................    output_low(GLCD_CS2); 
00BEC:  BCF    F93.5
00BEE:  BCF    F8A.5
....................    return data;               // Return the read data 
00BF0:  MOVFF  29D,01
.................... } 
00BF4:  MOVLB  0
00BF6:  RETLW  00
....................  
.................... #endif 
....................  
.................... #include <GRAPHICS.C> 
.................... ///////////////////////////////////////////////////////////////////////// 
.................... ////                          graphics.c                             //// 
.................... ////                                                                 //// 
.................... ////   This file contains functions to draw lines, rectangles, bars, //// 
.................... ////   circles and text to a display. A function which draws a       //// 
.................... ////   single pixel must be defined before calling the functions in  //// 
.................... ////   this file. Call it glcd_pixel(x, y, color) where x is the     //// 
.................... ////   horizontal coordinate, y is the vertical coordinate, and      //// 
.................... ////   color is 1 bit to turn the pixel on or off.                   //// 
.................... ////                                                                 //// 
.................... ////   * Note: (0, 0) is treated as the upper left corner            //// 
.................... ////                                                                 //// 
.................... ///////////////////////////////////////////////////////////////////////// 
.................... ////                                                                 //// 
.................... ////  glcd_line(x1, y1, x2, y2, color)                               //// 
.................... ////     * Draws a line from the first point to the second point     //// 
.................... ////       with the given color                                      //// 
.................... ////       - color can be ON or OFF                                  //// 
.................... ////                                                                 //// 
.................... ////  glcd_rect(x1, y1, x2, y2, fill, color)                         //// 
.................... ////     * Draws a rectangle with one corner at point (x1,y1) and    //// 
.................... ////       the other corner at point (x2,y2)                         //// 
.................... ////       - fill can be YES or NO                                   //// 
.................... ////       - color can be ON or OFF                                  //// 
.................... ////                                                                 //// 
.................... ////  glcd_bar(x1, y1, x2, y2, width, color)                         //// 
.................... ////     * Draws a bar (wide line) from the first point to the       //// 
.................... ////       second point                                              //// 
.................... ////       - width is the number of pixels wide                      //// 
.................... ////       - color is ON or OFF                                      //// 
.................... ////                                                                 //// 
.................... ////  glcd_circle(x, y, radius, fill, color)                         //// 
.................... ////     * Draws a circle with center at (x,y)                       //// 
.................... ////       - fill can be YES or NO                                   //// 
.................... ////       - color can be ON or OFF                                  //// 
.................... ////                                                                 //// 
.................... ////  glcd_text57(x, y, textptr, size, color)                        //// 
.................... ////     * Write the null terminated text pointed to by textptr with //// 
.................... ////       the upper left coordinate of the first character at (x,y) //// 
.................... ////       Characters are 5 pixels wide and 7 pixels tall            //// 
.................... ////       - size is an integer that scales the size of the text     //// 
.................... ////       - color is ON or OFF                                      //// 
.................... ////     * Note - This function wraps characters to the next line    //// 
.................... ////              use #define GLCD_WIDTH to specify a display width  //// 
.................... ////                                                                 //// 
.................... ///////////////////////////////////////////////////////////////////////// 
.................... ////        (C) Copyright 1996, 2004 Custom Computer Services        //// 
.................... //// This source code may only be used by licensed users of the CCS  //// 
.................... //// C compiler.  This source code may only be distributed to other  //// 
.................... //// licensed users of the CCS C compiler.  No other use,            //// 
.................... //// reproduction or distribution is permitted without written       //// 
.................... //// permission.  Derivative programs created using this software    //// 
.................... //// in object code form are not restricted in any way.              //// 
.................... ///////////////////////////////////////////////////////////////////////// 
....................  
....................  
.................... ///////////////////////////////////////////////////////////////////////// 
.................... #ifndef GRAPHICS_DRAWING_FUNCTIONS 
.................... #define GRAPHICS_DRAWING_FUNCTIONS 
.................... ///////////////////////////////////////////////////////////////////////// 
....................  
....................  
.................... ///////////////////////////////////////////////////////////////////////// 
.................... #ifndef ON 
.................... #define ON  1 
.................... #endif 
....................  
.................... #ifndef OFF 
.................... #define OFF 0 
.................... #endif 
....................  
.................... #ifndef YES 
.................... #define YES 1 
.................... #endif 
....................  
.................... #ifndef NO 
.................... #define NO  0 
.................... #endif 
.................... ///////////////////////////////////////////////////////////////////////// 
....................  
....................  
.................... ///////////////////////////////////////////////////////////////////////// 
.................... //// Defines a 5x7 font 
.................... ///////////////////////////////////////////////////////////////////////// 
.................... const int8 FONT[51][5] ={0x00, 0x00, 0x00, 0x00, 0x00, // SPACE 
....................                          0x00, 0x00, 0x5F, 0x00, 0x00, // ! 
....................                          0x00, 0x03, 0x00, 0x03, 0x00, // " 
....................                          0x14, 0x3E, 0x14, 0x3E, 0x14, // # 
....................                          0x24, 0x2A, 0x7F, 0x2A, 0x12, // $ 
....................                          0x43, 0x33, 0x08, 0x66, 0x61, // % 
....................                          0x36, 0x49, 0x55, 0x22, 0x50, // & 
....................                          0x00, 0x05, 0x03, 0x00, 0x00, // ' 
....................                          0x00, 0x1C, 0x22, 0x41, 0x00, // ( 
....................                          0x00, 0x41, 0x22, 0x1C, 0x00, // ) 
....................                          0x14, 0x08, 0x3E, 0x08, 0x14, // * 
....................                          0x08, 0x08, 0x3E, 0x08, 0x08, // + 
....................                          0x00, 0x50, 0x30, 0x00, 0x00, // , 
....................                          0x08, 0x08, 0x08, 0x08, 0x08, // - 
....................                          0x00, 0x60, 0x60, 0x00, 0x00, // . 
....................                          0x20, 0x10, 0x08, 0x04, 0x02, // / 
....................                          0x3E, 0x51, 0x49, 0x45, 0x3E, // 0 
....................                          0x00, 0x04, 0x02, 0x7F, 0x00, // 1 
....................                          0x42, 0x61, 0x51, 0x49, 0x46, // 2 
....................                          0x22, 0x41, 0x49, 0x49, 0x36, // 3 
....................                          0x18, 0x14, 0x12, 0x7F, 0x10, // 4 
....................                          0x27, 0x45, 0x45, 0x45, 0x39, // 5 
....................                          0x3E, 0x49, 0x49, 0x49, 0x32, // 6 
....................                          0x01, 0x01, 0x71, 0x09, 0x07, // 7 
....................                          0x36, 0x49, 0x49, 0x49, 0x36, // 8 
....................                          0x26, 0x49, 0x49, 0x49, 0x3E, // 9 
....................                          0x00, 0x36, 0x36, 0x00, 0x00, // : 
....................                          0x00, 0x56, 0x36, 0x00, 0x00, // ; 
....................                          0x08, 0x14, 0x22, 0x41, 0x00, // < 
....................                          0x14, 0x14, 0x14, 0x14, 0x14, // = 
....................                          0x00, 0x41, 0x22, 0x14, 0x08, // > 
....................                          0x02, 0x01, 0x51, 0x09, 0x06, // ? 
....................                          0x3E, 0x41, 0x59, 0x55, 0x5E, // @ 
....................                          0x7E, 0x09, 0x09, 0x09, 0x7E, // A 
....................                          0x7F, 0x49, 0x49, 0x49, 0x36, // B 
....................                          0x3E, 0x41, 0x41, 0x41, 0x22, // C 
....................                          0x7F, 0x41, 0x41, 0x41, 0x3E, // D 
....................                          0x7F, 0x49, 0x49, 0x49, 0x41, // E 
....................                          0x7F, 0x09, 0x09, 0x09, 0x01, // F 
....................                          0x3E, 0x41, 0x41, 0x49, 0x3A, // G 
....................                          0x7F, 0x08, 0x08, 0x08, 0x7F, // H 
....................                          0x00, 0x41, 0x7F, 0x41, 0x00, // I 
....................                          0x30, 0x40, 0x40, 0x40, 0x3F, // J 
....................                          0x7F, 0x08, 0x14, 0x22, 0x41, // K 
....................                          0x7F, 0x40, 0x40, 0x40, 0x40, // L 
....................                          0x7F, 0x02, 0x0C, 0x02, 0x7F, // M 
....................                          0x7F, 0x02, 0x04, 0x08, 0x7F, // N 
....................                          0x3E, 0x41, 0x41, 0x41, 0x3E, // O 
....................                          0x7F, 0x09, 0x09, 0x09, 0x06, // P 
....................                          0x1E, 0x21, 0x21, 0x21, 0x5E, // Q 
....................                          0x7F, 0x09, 0x09, 0x09, 0x76};// R 
....................  
.................... const int8 FONT2[44][5]={0x26, 0x49, 0x49, 0x49, 0x32, // S 
....................                          0x01, 0x01, 0x7F, 0x01, 0x01, // T 
....................                          0x3F, 0x40, 0x40, 0x40, 0x3F, // U 
....................                          0x1F, 0x20, 0x40, 0x20, 0x1F, // V 
....................                          0x7F, 0x20, 0x10, 0x20, 0x7F, // W 
....................                          0x41, 0x22, 0x1C, 0x22, 0x41, // X 
....................                          0x07, 0x08, 0x70, 0x08, 0x07, // Y 
....................                          0x61, 0x51, 0x49, 0x45, 0x43, // Z 
....................                          0x00, 0x7F, 0x41, 0x00, 0x00, // [ 
....................                          0x02, 0x04, 0x08, 0x10, 0x20, // \ 
....................                          0x00, 0x00, 0x41, 0x7F, 0x00, // ] 
....................                          0x04, 0x02, 0x01, 0x02, 0x04, // ^ 
....................                          0x40, 0x40, 0x40, 0x40, 0x40, // _ 
....................                          0x00, 0x01, 0x02, 0x04, 0x00, // ` 
....................                          0x20, 0x54, 0x54, 0x54, 0x78, // a 
....................                          0x7F, 0x44, 0x44, 0x44, 0x38, // b 
....................                          0x38, 0x44, 0x44, 0x44, 0x44, // c 
....................                          0x38, 0x44, 0x44, 0x44, 0x7F, // d 
....................                          0x38, 0x54, 0x54, 0x54, 0x18, // e 
....................                          0x04, 0x04, 0x7E, 0x05, 0x05, // f 
....................                          0x08, 0x54, 0x54, 0x54, 0x3C, // g 
....................                          0x7F, 0x08, 0x04, 0x04, 0x78, // h 
....................                          0x00, 0x44, 0x7D, 0x40, 0x00, // i 
....................                          0x20, 0x40, 0x44, 0x3D, 0x00, // j 
....................                          0x7F, 0x10, 0x28, 0x44, 0x00, // k 
....................                          0x00, 0x41, 0x7F, 0x40, 0x00, // l 
....................                          0x7C, 0x04, 0x78, 0x04, 0x78, // m 
....................                          0x7C, 0x08, 0x04, 0x04, 0x78, // n 
....................                          0x38, 0x44, 0x44, 0x44, 0x38, // o 
....................                          0x7C, 0x14, 0x14, 0x14, 0x08, // p 
....................                          0x08, 0x14, 0x14, 0x14, 0x7C, // q 
....................                          0x00, 0x7C, 0x08, 0x04, 0x04, // r 
....................                          0x48, 0x54, 0x54, 0x54, 0x20, // s 
....................                          0x04, 0x04, 0x3F, 0x44, 0x44, // t 
....................                          0x3C, 0x40, 0x40, 0x20, 0x7C, // u 
....................                          0x1C, 0x20, 0x40, 0x20, 0x1C, // v 
....................                          0x3C, 0x40, 0x30, 0x40, 0x3C, // w 
....................                          0x44, 0x28, 0x10, 0x28, 0x44, // x 
....................                          0x0C, 0x50, 0x50, 0x50, 0x3C, // y 
....................                          0x44, 0x64, 0x54, 0x4C, 0x44, // z 
....................                          0x00, 0x08, 0x36, 0x41, 0x41, // { 
....................                          0x00, 0x00, 0x7F, 0x00, 0x00, // | 
....................                          0x41, 0x41, 0x36, 0x08, 0x00, // } 
....................                          0x02, 0x01, 0x02, 0x04, 0x02};// ~ 
.................... ///////////////////////////////////////////////////////////////////////// 
....................  
....................  
.................... ///////////////////////////////////////////////////////////////////////// 
.................... // Purpose:       Draw a line on a graphic LCD using Bresenham's 
.................... //                line drawing algorithm 
.................... // Inputs:        (x1, y1) - the start coordinate 
.................... //                (x2, y2) - the end coordinate 
.................... //                color - ON or OFF 
.................... // Dependencies:  glcd_pixel() 
.................... ///////////////////////////////////////////////////////////////////////// 
.................... #ifdef LARGE_LCD 
.................... void glcd_line(int16 x1, int16 y1, int16 x2, int16 y2, int1 color) 
.................... #else 
.................... void glcd_line(int8 x1, int8 y1, int8 x2, int8 y2, int1 color) 
.................... #endif 
.................... { 
*
00DAA:  MOVLW  01
00DAC:  MOVLB  2
00DAE:  MOVWF  x8F
00DB0:  MOVWF  x90
00DB2:  CLRF   x95
....................    int16        dy, dx; 
....................    signed int8  addx=1, addy=1; 
....................    signed int16 P, diff; 
....................  
....................    #ifdef LARGE_LCD 
....................    int16 i=0; 
....................    dx = abs((signed int16)(x2 - x1)); 
....................    dy = abs((signed int16)(y2 - y1)); 
....................    #else 
....................    int8 i=0; 
....................    dx = abs((signed int8)(x2 - x1)); 
00DB4:  MOVF   x86,W
00DB6:  SUBWF  x88,W
00DB8:  MOVWF  x96
00DBA:  MOVF   x96,W
00DBC:  BTFSS  x96.7
00DBE:  BRA    0DC6
00DC0:  MOVLW  00
00DC2:  BSF    FD8.0
00DC4:  SUBFWB x96,W
00DC6:  CLRF   03
00DC8:  MOVWF  x8D
00DCA:  MOVFF  03,28E
....................    dy = abs((signed int8)(y2 - y1)); 
00DCE:  MOVF   x87,W
00DD0:  SUBWF  x89,W
00DD2:  MOVWF  x96
00DD4:  MOVF   x96,W
00DD6:  BTFSS  x96.7
00DD8:  BRA    0DE0
00DDA:  MOVLW  00
00DDC:  BSF    FD8.0
00DDE:  SUBFWB x96,W
00DE0:  CLRF   03
00DE2:  MOVWF  x8B
00DE4:  MOVFF  03,28C
....................    #endif 
....................  
....................    if(x1 > x2) 
00DE8:  MOVF   x86,W
00DEA:  SUBWF  x88,W
00DEC:  BC    0DF2
....................       addx = -1; 
00DEE:  MOVLW  FF
00DF0:  MOVWF  x8F
....................    if(y1 > y2) 
00DF2:  MOVF   x87,W
00DF4:  SUBWF  x89,W
00DF6:  BC    0DFC
....................       addy = -1; 
00DF8:  MOVLW  FF
00DFA:  MOVWF  x90
....................  
....................    if(dx >= dy) 
00DFC:  MOVF   x8C,W
00DFE:  SUBWF  x8E,W
00E00:  BNC   0E78
00E02:  BNZ   0E0A
00E04:  MOVF   x8B,W
00E06:  SUBWF  x8D,W
00E08:  BNC   0E78
....................    { 
....................       dy *= 2; 
00E0A:  BCF    FD8.0
00E0C:  RLCF   x8B,F
00E0E:  RLCF   x8C,F
....................       P = dy - dx; 
00E10:  MOVF   x8D,W
00E12:  SUBWF  x8B,W
00E14:  MOVWF  00
00E16:  MOVF   x8E,W
00E18:  SUBWFB x8C,W
00E1A:  MOVFF  00,291
00E1E:  MOVWF  x92
....................       diff = P - dx; 
00E20:  MOVF   x8D,W
00E22:  SUBWF  x91,W
00E24:  MOVWF  x93
00E26:  MOVF   x8E,W
00E28:  SUBWFB x92,W
00E2A:  MOVWF  x94
....................  
....................       for(; i<=dx; ++i) 
00E2C:  MOVF   x8E,F
00E2E:  BNZ   0E36
00E30:  MOVF   x95,W
00E32:  SUBWF  x8D,W
00E34:  BNC   0E76
....................       { 
....................          glcd_pixel(x1, y1, color); 
00E36:  MOVFF  286,296
00E3A:  MOVFF  287,297
00E3E:  MOVFF  28A,298
00E42:  MOVLB  0
00E44:  RCALL  0BF8
....................  
....................          if(P < 0) 
00E46:  MOVLB  2
00E48:  BTFSC  x92.7
00E4A:  BRA    0E4E
00E4C:  BRA    0E5E
....................          { 
....................             P  += dy; 
00E4E:  MOVF   x8B,W
00E50:  ADDWF  x91,F
00E52:  MOVF   x8C,W
00E54:  ADDWFC x92,F
....................             x1 += addx; 
00E56:  MOVF   x8F,W
00E58:  ADDWF  x86,W
00E5A:  MOVWF  x86
....................          } 
....................          else 
00E5C:  BRA    0E72
....................          { 
....................             P  += diff; 
00E5E:  MOVF   x93,W
00E60:  ADDWF  x91,F
00E62:  MOVF   x94,W
00E64:  ADDWFC x92,F
....................             x1 += addx; 
00E66:  MOVF   x8F,W
00E68:  ADDWF  x86,W
00E6A:  MOVWF  x86
....................             y1 += addy; 
00E6C:  MOVF   x90,W
00E6E:  ADDWF  x87,W
00E70:  MOVWF  x87
....................          } 
....................       } 
00E72:  INCF   x95,F
00E74:  BRA    0E2C
....................    } 
....................    else 
00E76:  BRA    0EE4
....................    { 
....................       dx *= 2; 
00E78:  BCF    FD8.0
00E7A:  RLCF   x8D,F
00E7C:  RLCF   x8E,F
....................       P = dx - dy; 
00E7E:  MOVF   x8B,W
00E80:  SUBWF  x8D,W
00E82:  MOVWF  00
00E84:  MOVF   x8C,W
00E86:  SUBWFB x8E,W
00E88:  MOVFF  00,291
00E8C:  MOVWF  x92
....................       diff = P - dy; 
00E8E:  MOVF   x8B,W
00E90:  SUBWF  x91,W
00E92:  MOVWF  x93
00E94:  MOVF   x8C,W
00E96:  SUBWFB x92,W
00E98:  MOVWF  x94
....................  
....................       for(; i<=dy; ++i) 
00E9A:  MOVF   x8C,F
00E9C:  BNZ   0EA4
00E9E:  MOVF   x95,W
00EA0:  SUBWF  x8B,W
00EA2:  BNC   0EE4
....................       { 
....................          glcd_pixel(x1, y1, color); 
00EA4:  MOVFF  286,296
00EA8:  MOVFF  287,297
00EAC:  MOVFF  28A,298
00EB0:  MOVLB  0
00EB2:  RCALL  0BF8
....................  
....................          if(P < 0) 
00EB4:  MOVLB  2
00EB6:  BTFSC  x92.7
00EB8:  BRA    0EBC
00EBA:  BRA    0ECC
....................          { 
....................             P  += dx; 
00EBC:  MOVF   x8D,W
00EBE:  ADDWF  x91,F
00EC0:  MOVF   x8E,W
00EC2:  ADDWFC x92,F
....................             y1 += addy; 
00EC4:  MOVF   x90,W
00EC6:  ADDWF  x87,W
00EC8:  MOVWF  x87
....................          } 
....................          else 
00ECA:  BRA    0EE0
....................          { 
....................             P  += diff; 
00ECC:  MOVF   x93,W
00ECE:  ADDWF  x91,F
00ED0:  MOVF   x94,W
00ED2:  ADDWFC x92,F
....................             x1 += addx; 
00ED4:  MOVF   x8F,W
00ED6:  ADDWF  x86,W
00ED8:  MOVWF  x86
....................             y1 += addy; 
00EDA:  MOVF   x90,W
00EDC:  ADDWF  x87,W
00EDE:  MOVWF  x87
....................          } 
....................       } 
00EE0:  INCF   x95,F
00EE2:  BRA    0E9A
....................    } 
.................... } 
00EE4:  MOVLB  0
00EE6:  RETLW  00
....................  
....................  
.................... ///////////////////////////////////////////////////////////////////////// 
.................... // Purpose:       Draw a rectangle on a graphic LCD 
.................... // Inputs:        (x1, y1) - the start coordinate 
.................... //                (x2, y2) - the end coordinate 
.................... //                fill  - YES or NO 
.................... //                color - ON or OFF 
.................... // Dependencies:  glcd_pixel(), glcd_line() 
.................... ///////////////////////////////////////////////////////////////////////// 
.................... #ifdef LARGE_LCD 
.................... void glcd_rect(int16 x1, int16 y1, int16 x2, int16 y2, int1 fill, int1 color) 
.................... #else 
.................... void glcd_rect(int8 x1, int8 y1, int8 x2, int8 y2, int1 fill, int1 color) 
.................... #endif 
.................... { 
....................    if(fill) 
00EE8:  MOVLB  2
00EEA:  MOVF   x7F,F
00EEC:  BZ    0F4A
....................    { 
....................       #ifdef LARGE_LCD 
....................       int16 i, xmin, xmax, ymin, ymax; 
....................       #else 
....................       int8  i, xmin, xmax, ymin, ymax; 
....................       #endif 
....................  
....................       if(x1 < x2)                            //  Find x min and max 
00EEE:  MOVF   x7D,W
00EF0:  SUBWF  x7B,W
00EF2:  BC    0EFE
....................       { 
....................          xmin = x1; 
00EF4:  MOVFF  27B,282
....................          xmax = x2; 
00EF8:  MOVFF  27D,283
....................       } 
....................       else 
00EFC:  BRA    0F06
....................       { 
....................          xmin = x2; 
00EFE:  MOVFF  27D,282
....................          xmax = x1; 
00F02:  MOVFF  27B,283
....................       } 
....................  
....................       if(y1 < y2)                            // Find the y min and max 
00F06:  MOVF   x7E,W
00F08:  SUBWF  x7C,W
00F0A:  BC    0F16
....................       { 
....................          ymin = y1; 
00F0C:  MOVFF  27C,284
....................          ymax = y2; 
00F10:  MOVFF  27E,285
....................       } 
....................       else 
00F14:  BRA    0F1E
....................       { 
....................          ymin = y2; 
00F16:  MOVFF  27E,284
....................          ymax = y1; 
00F1A:  MOVFF  27C,285
....................       } 
....................  
....................       for(; xmin <= xmax; ++xmin) 
00F1E:  MOVF   x82,W
00F20:  SUBWF  x83,W
00F22:  BNC   0F48
....................       { 
....................          for(i=ymin; i<=ymax; ++i) 
00F24:  MOVFF  284,281
00F28:  MOVF   x81,W
00F2A:  SUBWF  x85,W
00F2C:  BNC   0F44
....................          { 
....................             glcd_pixel(xmin, i, color); 
00F2E:  MOVFF  282,296
00F32:  MOVFF  281,297
00F36:  MOVFF  280,298
00F3A:  MOVLB  0
00F3C:  RCALL  0BF8
....................          } 
00F3E:  MOVLB  2
00F40:  INCF   x81,F
00F42:  BRA    0F28
....................       } 
00F44:  INCF   x82,F
00F46:  BRA    0F1E
....................    } 
....................    else 
00F48:  BRA    0FA6
....................    { 
....................       glcd_line(x1, y1, x2, y1, color);      // Draw the 4 sides 
00F4A:  MOVFF  27B,286
00F4E:  MOVFF  27C,287
00F52:  MOVFF  27D,288
00F56:  MOVFF  27C,289
00F5A:  MOVFF  280,28A
00F5E:  MOVLB  0
00F60:  RCALL  0DAA
....................       glcd_line(x1, y2, x2, y2, color); 
00F62:  MOVFF  27B,286
00F66:  MOVFF  27E,287
00F6A:  MOVFF  27D,288
00F6E:  MOVFF  27E,289
00F72:  MOVFF  280,28A
00F76:  RCALL  0DAA
....................       glcd_line(x1, y1, x1, y2, color); 
00F78:  MOVFF  27B,286
00F7C:  MOVFF  27C,287
00F80:  MOVFF  27B,288
00F84:  MOVFF  27E,289
00F88:  MOVFF  280,28A
00F8C:  RCALL  0DAA
....................       glcd_line(x2, y1, x2, y2, color); 
00F8E:  MOVFF  27D,286
00F92:  MOVFF  27C,287
00F96:  MOVFF  27D,288
00F9A:  MOVFF  27E,289
00F9E:  MOVFF  280,28A
00FA2:  RCALL  0DAA
00FA4:  MOVLB  2
....................    } 
.................... } 
00FA6:  MOVLB  0
00FA8:  RETLW  00
....................  
.................... ///////////////////////////////////////////////////////////////////////// 
.................... // Purpose:       Draw a bar (wide line) on a graphic LCD 
.................... // Inputs:        (x1, y1) - the start coordinate 
.................... //                (x2, y2) - the end coordinate 
.................... //                width  - The number of pixels wide 
.................... //                color - ON or OFF 
.................... ///////////////////////////////////////////////////////////////////////// 
.................... #ifdef LARGE_LCD 
.................... void glcd_bar(int16 x1, int16 y1, int16 x2, int16 y2, int8 width, int1 color) 
.................... #else 
.................... void glcd_bar(int8 x1, int8 y1, int8 x2, int8 y2, int8 width, int1 color) 
.................... #endif 
.................... { 
....................    int8         half_width; 
....................    signed int16 dy, dx; 
....................    signed int8  addx=1, addy=1, j; 
....................    signed int16 P, diff, c1, c2; 
....................  
....................    #ifdef LARGE_LCD 
....................    int16 i=0; 
....................    dx = abs((signed int16)(x2 - x1)); 
....................    dy = abs((signed int16)(y2 - y1)); 
....................    #else 
....................    int8 i=0; 
....................    dx = abs((signed int8)(x2 - x1)); 
....................    dy = abs((signed int8)(y2 - y1)); 
....................    #endif 
....................  
....................    half_width = width/2; 
....................    c1 = -(dx*x1 + dy*y1); 
....................    c2 = -(dx*x2 + dy*y2); 
....................  
....................    if(x1 > x2) 
....................    { 
....................       signed int16 temp; 
....................       temp = c1; 
....................       c1 = c2; 
....................       c2 = temp; 
....................       addx = -1; 
....................    } 
....................    if(y1 > y2) 
....................    { 
....................       signed int16 temp; 
....................       temp = c1; 
....................       c1 = c2; 
....................       c2 = temp; 
....................       addy = -1; 
....................    } 
....................  
....................    if(dx >= dy) 
....................    { 
....................       P = 2*dy - dx; 
....................       diff = P - dx; 
....................  
....................       for(i=0; i<=dx; ++i) 
....................       { 
....................          for(j=-half_width; j<half_width+width%2; ++j) 
....................          { 
....................             #ifdef LARGE_LCD 
....................             int16 temp; 
....................             #else 
....................             int8 temp; 
....................             #endif 
....................  
....................             temp = dx*x1+dy*(y1+j);    // Use more RAM to increase speed 
....................             if(temp+c1 >= 0 && temp+c2 <=0) 
....................                glcd_pixel(x1, y1+j, color); 
....................          } 
....................          if(P < 0) 
....................          { 
....................             P  += 2*dy; 
....................             x1 += addx; 
....................          } 
....................          else 
....................          { 
....................             P  += diff; 
....................             x1 += addx; 
....................             y1 += addy; 
....................          } 
....................       } 
....................    } 
....................    else 
....................    { 
....................       P = 2*dx - dy; 
....................       diff = P - dy; 
....................  
....................       for(i=0; i<=dy; ++i) 
....................       { 
....................          if(P < 0) 
....................          { 
....................             P  += 2*dx; 
....................             y1 += addy; 
....................          } 
....................          else 
....................          { 
....................             P  += diff; 
....................             x1 += addx; 
....................             y1 += addy; 
....................          } 
....................          for(j=-half_width; j<half_width+width%2; ++j) 
....................          { 
....................             #ifdef LARGE_LCD 
....................             int16 temp; 
....................             #else 
....................             int8 temp; 
....................             #endif 
....................  
....................             temp = dx*x1+dy*(y1+j);    // Use more RAM to increase speed 
....................             if(temp+c1 >= 0 && temp+c2 <=0) 
....................                glcd_pixel(x1+j, y1, color); 
....................          } 
....................       } 
....................    } 
.................... } 
....................  
....................  
.................... ///////////////////////////////////////////////////////////////////////// 
.................... // Purpose:       Draw a circle on a graphic LCD 
.................... // Inputs:        (x,y) - the center of the circle 
.................... //                radius - the radius of the circle 
.................... //                fill - YES or NO 
.................... //                color - ON or OFF 
.................... ///////////////////////////////////////////////////////////////////////// 
.................... #ifdef LARGE_LCD 
.................... void glcd_circle(int16 x, int16 y, int16 radius, int1 fill, int1 color) 
.................... #else 
.................... void glcd_circle(int8 x, int8 y, int8 radius, int1 fill, int1 color) 
.................... #endif 
.................... { 
....................    #ifdef LARGE_LCD 
....................    signed int16 a, b, P; 
....................    #else 
....................    signed int8  a, b, P; 
....................    #endif 
....................  
....................    a = 0; 
....................    b = radius; 
....................    P = 1 - radius; 
....................  
....................    do 
....................    { 
....................       if(fill) 
....................       { 
....................          glcd_line(x-a, y+b, x+a, y+b, color); 
....................          glcd_line(x-a, y-b, x+a, y-b, color); 
....................          glcd_line(x-b, y+a, x+b, y+a, color); 
....................          glcd_line(x-b, y-a, x+b, y-a, color); 
....................       } 
....................       else 
....................       { 
....................          glcd_pixel(a+x, b+y, color); 
....................          glcd_pixel(b+x, a+y, color); 
....................          glcd_pixel(x-a, b+y, color); 
....................          glcd_pixel(x-b, a+y, color); 
....................          glcd_pixel(b+x, y-a, color); 
....................          glcd_pixel(a+x, y-b, color); 
....................          glcd_pixel(x-a, y-b, color); 
....................          glcd_pixel(x-b, y-a, color); 
....................       } 
....................  
....................       if(P < 0) 
....................          P += 3 + 2 * a++; 
....................       else 
....................          P += 5 + 2 * (a++ - b--); 
....................     } while(a <= b); 
.................... } 
....................  
....................  
.................... ///////////////////////////////////////////////////////////////////////// 
.................... // Purpose:       Write text on a graphic LCD 
.................... // Inputs:        (x,y) - The upper left coordinate of the first letter 
.................... //                textptr - A pointer to an array of text to display 
.................... //                size - The size of the text: 1 = 5x7, 2 = 10x14, ... 
.................... //                color - ON or OFF 
.................... ///////////////////////////////////////////////////////////////////////// 
.................... #ifdef LARGE_LCD 
.................... void glcd_text57(int16 x, int16 y, char* textptr, int8 size, int1 color) 
.................... #else 
.................... void glcd_text57(int8 x, int8 y, char* textptr, int8 size, int1 color) 
.................... #endif 
.................... { 
....................    int8 j, k, l, m;                       // Loop counters 
....................    int8 pixelData[5];                     // Stores character data 
....................  
....................    for(; *textptr != '\0'; ++textptr, ++x)// Loop through the passed string 
00FAA:  MOVFF  27E,03
00FAE:  MOVLB  2
00FB0:  MOVFF  27D,FE9
00FB4:  MOVFF  27E,FEA
00FB8:  MOVF   FEF,F
00FBA:  BTFSC  FD8.2
00FBC:  BRA    115E
....................    { 
....................       if(*textptr < 'S') // Checks if the letter is in the first font array 
00FBE:  MOVFF  27E,03
00FC2:  MOVFF  27D,FE9
00FC6:  MOVFF  27E,FEA
00FCA:  MOVF   FEF,W
00FCC:  SUBLW  52
00FCE:  BNC   101E
....................          memcpy(pixelData, FONT[*textptr - ' '], 5); 
00FD0:  MOVFF  27E,03
00FD4:  MOVFF  27D,FE9
00FD8:  MOVFF  27E,FEA
00FDC:  MOVLW  20
00FDE:  SUBWF  FEF,W
00FE0:  MULLW  05
00FE2:  MOVF   FF3,W
00FE4:  CLRF   03
00FE6:  MOVWF  x8A
00FE8:  MOVLW  02
00FEA:  MOVWF  FEA
00FEC:  MOVLW  85
00FEE:  MOVWF  FE9
00FF0:  CLRF   x8E
00FF2:  MOVFF  28A,28D
00FF6:  MOVFF  FF2,28B
00FFA:  BCF    FF2.7
00FFC:  MOVLW  05
00FFE:  MOVWF  01
01000:  CLRF   FF7
01002:  MOVF   x8A,W
01004:  MOVLB  0
01006:  CALL   0004
0100A:  TBLRD*-
0100C:  TBLRD*+
0100E:  MOVFF  FF5,FEE
01012:  DECFSZ 01,F
01014:  BRA    100C
01016:  MOVLB  2
01018:  BTFSC  x8B.7
0101A:  BSF    FF2.7
....................       else if(*textptr <= '~') // Check if the letter is in the second font array 
0101C:  BRA    1088
0101E:  MOVFF  27E,03
01022:  MOVFF  27D,FE9
01026:  MOVFF  27E,FEA
0102A:  MOVF   FEF,W
0102C:  SUBLW  7E
0102E:  BNC   107E
....................          memcpy(pixelData, FONT2[*textptr - 'S'], 5); 
01030:  MOVFF  27E,03
01034:  MOVFF  27D,FE9
01038:  MOVFF  27E,FEA
0103C:  MOVLW  53
0103E:  SUBWF  FEF,W
01040:  MULLW  05
01042:  MOVF   FF3,W
01044:  CLRF   03
01046:  MOVWF  x8A
01048:  MOVLW  02
0104A:  MOVWF  FEA
0104C:  MOVLW  85
0104E:  MOVWF  FE9
01050:  CLRF   x8E
01052:  MOVFF  28A,28D
01056:  MOVFF  FF2,28B
0105A:  BCF    FF2.7
0105C:  MOVLW  05
0105E:  MOVWF  01
01060:  CLRF   FF7
01062:  MOVF   x8A,W
01064:  MOVLB  0
01066:  CALL   0118
0106A:  TBLRD*-
0106C:  TBLRD*+
0106E:  MOVFF  FF5,FEE
01072:  DECFSZ 01,F
01074:  BRA    106C
01076:  MOVLB  2
01078:  BTFSC  x8B.7
0107A:  BSF    FF2.7
....................       else 
0107C:  BRA    1088
....................          memcpy(pixelData, FONT[0], 5);   // Default to space 
0107E:  CLRF   x85
01080:  CLRF   x86
01082:  CLRF   x87
01084:  CLRF   x88
01086:  CLRF   x89
....................  
....................       // Handles newline and carriage returns 
....................       switch(*textptr) 
....................       { 
01088:  MOVFF  27E,03
0108C:  MOVF   x7D,W
0108E:  MOVWF  FE9
01090:  MOVFF  03,FEA
01094:  MOVF   FEF,W
01096:  XORLW  0A
01098:  MOVLB  0
0109A:  BZ    10A2
0109C:  XORLW  07
0109E:  BZ    10B2
010A0:  BRA    10B8
....................          case '\n': 
....................             y += 7*size + 1; 
010A2:  MOVLB  2
010A4:  MOVF   x7F,W
010A6:  MULLW  07
010A8:  MOVF   FF3,W
010AA:  ADDLW  01
010AC:  ADDWF  x7C,F
....................             continue; 
010AE:  BRA    1150
010B0:  MOVLB  0
....................          case '\r': 
....................             x = 0; 
010B2:  MOVLB  2
010B4:  CLRF   x7B
....................             continue; 
010B6:  BRA    1150
....................       } 
....................  
....................       if(x+5*size >= GLCD_WIDTH)          // Performs character wrapping 
010B8:  MOVLB  2
010BA:  MOVF   x7F,W
010BC:  MULLW  05
010BE:  MOVF   FF3,W
010C0:  ADDWF  x7B,W
010C2:  SUBLW  7F
010C4:  BC    10D2
....................       { 
....................          x = 0;                           // Set x at far left position 
010C6:  CLRF   x7B
....................          y += 7*size + 1;                 // Set y at next position down 
010C8:  MOVF   x7F,W
010CA:  MULLW  07
010CC:  MOVF   FF3,W
010CE:  ADDLW  01
010D0:  ADDWF  x7C,F
....................       } 
....................       for(j=0; j<5; ++j, x+=size)         // Loop through character byte data 
010D2:  CLRF   x81
010D4:  MOVF   x81,W
010D6:  SUBLW  04
010D8:  BNC   1150
....................       { 
....................          for(k=0; k < 7; ++k)             // Loop through the vertical pixels 
010DA:  CLRF   x82
010DC:  MOVF   x82,W
010DE:  SUBLW  06
010E0:  BNC   1148
....................          { 
....................             if(bit_test(pixelData[j], k)) // Check if the pixel should be set 
010E2:  CLRF   03
010E4:  MOVF   x81,W
010E6:  ADDLW  85
010E8:  MOVWF  FE9
010EA:  MOVLW  02
010EC:  ADDWFC 03,W
010EE:  MOVWF  FEA
010F0:  MOVFF  FEF,28A
010F4:  MOVFF  28A,00
010F8:  MOVF   x82,W
010FA:  MOVWF  01
010FC:  BZ    1106
010FE:  BCF    FD8.0
01100:  RRCF   00,F
01102:  DECFSZ 01,F
01104:  BRA    10FE
01106:  BTFSS  00.0
01108:  BRA    1144
....................             { 
....................                for(l=0; l < size; ++l)    // These two loops change the 
0110A:  CLRF   x83
0110C:  MOVF   x7F,W
0110E:  SUBWF  x83,W
01110:  BC    1144
....................                {                          // character's size 
....................                   for(m=0; m < size; ++m) 
01112:  CLRF   x84
01114:  MOVF   x7F,W
01116:  SUBWF  x84,W
01118:  BC    1140
....................                   { 
....................                      glcd_pixel(x+m, y+k*size+l, color); // Draws the pixel 
0111A:  MOVF   x84,W
0111C:  ADDWF  x7B,W
0111E:  MOVWF  x8A
01120:  MOVF   x82,W
01122:  MULWF  x7F
01124:  MOVF   FF3,W
01126:  ADDWF  x7C,W
01128:  ADDWF  x83,W
0112A:  MOVWF  x8B
0112C:  MOVFF  28A,296
01130:  MOVWF  x97
01132:  MOVFF  280,298
01136:  MOVLB  0
01138:  RCALL  0BF8
....................                   } 
0113A:  MOVLB  2
0113C:  INCF   x84,F
0113E:  BRA    1114
....................                } 
01140:  INCF   x83,F
01142:  BRA    110C
....................             } 
....................          } 
01144:  INCF   x82,F
01146:  BRA    10DC
....................       } 
01148:  INCF   x81,F
0114A:  MOVF   x7F,W
0114C:  ADDWF  x7B,F
0114E:  BRA    10D4
....................    } 
01150:  INCF   x7D,F
01152:  BTFSC  FD8.2
01154:  INCF   x7E,F
01156:  INCF   x7B,F
01158:  MOVLB  0
0115A:  BRA    0FAA
0115C:  MOVLB  2
.................... } 
0115E:  MOVLB  0
01160:  RETLW  00
....................  
.................... #endif 
....................  
.................... #include <portada.h> 
.................... //------------------------------------------------------------------------------ 
.................... // File generated by LCD Assistant 
.................... // http://en.radzio.dxp.pl/bitmap_converter/ 
.................... //------------------------------------------------------------------------------ 
....................  
.................... const unsigned char PORTADA [64][16] = { 
.................... 0xFF, 0xFF, 0xFF, 0xFF, 0xFF, 0xFF, 0xFF, 0xFF, 0xFF, 0xFF, 0xFF, 0xFF, 0xFF, 0xFF, 0xFF, 0xFF, 
.................... 0xFF, 0xFF, 0xFF, 0xFF, 0xFF, 0xFF, 0xFF, 0xFF, 0xFF, 0xFF, 0xFF, 0xFF, 0xFF, 0xFF, 0xFF, 0xFF, 
.................... 0xFF, 0xFF, 0xFF, 0xFF, 0xFF, 0xFF, 0xFF, 0xFF, 0xFF, 0xFF, 0xFF, 0xFF, 0xFF, 0xFF, 0xFF, 0xFF, 
.................... 0xE0, 0x00, 0x00, 0x00, 0x00, 0x00, 0x00, 0x00, 0x00, 0x00, 0x00, 0x00, 0x00, 0x00, 0x00, 0x07, 
.................... 0xE0, 0x00, 0x00, 0x00, 0x00, 0x00, 0x00, 0x00, 0x00, 0x00, 0x00, 0x00, 0x00, 0x00, 0x00, 0x07, 
.................... 0xE0, 0x00, 0x00, 0x00, 0x00, 0x00, 0x00, 0x00, 0x00, 0x00, 0x00, 0x00, 0x00, 0x00, 0x00, 0x07, 
.................... 0xE0, 0x00, 0x00, 0x00, 0x00, 0x00, 0x00, 0x00, 0x00, 0x00, 0x00, 0x00, 0x00, 0x00, 0x00, 0x07, 
.................... 0xE0, 0x00, 0x00, 0x00, 0x00, 0x00, 0x00, 0x00, 0x00, 0x00, 0x00, 0x00, 0x00, 0x00, 0x00, 0x07, 
.................... 0xE0, 0x00, 0x00, 0x00, 0x00, 0x00, 0x00, 0x00, 0x00, 0x00, 0x00, 0x00, 0x00, 0x00, 0x00, 0x07, 
.................... 0xE0, 0x00, 0x00, 0x00, 0x00, 0x00, 0x00, 0x00, 0x00, 0x00, 0x00, 0x7F, 0xFF, 0xFF, 0xFF, 0xFF, 
.................... 0xE0, 0x00, 0x00, 0x00, 0x00, 0x00, 0x00, 0x00, 0x00, 0x00, 0x00, 0x80, 0x00, 0x00, 0x00, 0x0F, 
.................... 0xE0, 0x00, 0x00, 0x00, 0x00, 0x00, 0x00, 0x00, 0x00, 0x00, 0x01, 0x1F, 0x8F, 0x00, 0x00, 0x17, 
.................... 0xE0, 0x00, 0x00, 0x00, 0x00, 0x00, 0x00, 0x00, 0x00, 0x00, 0x02, 0x00, 0x1F, 0x3F, 0xFE, 0x27, 
.................... 0xE0, 0x00, 0x00, 0x00, 0x00, 0x00, 0x00, 0x00, 0x00, 0x00, 0x05, 0xFF, 0xDE, 0x40, 0x00, 0x47, 
.................... 0xE0, 0x04, 0x00, 0x00, 0x00, 0x00, 0x00, 0x00, 0x00, 0x00, 0x0B, 0x7F, 0xC0, 0x87, 0xF0, 0x87, 
.................... 0xE0, 0x06, 0x00, 0x0E, 0x67, 0x3F, 0x7D, 0x83, 0x1C, 0x00, 0x17, 0xFF, 0xE1, 0x08, 0x01, 0x07, 
.................... 0xE0, 0x07, 0x00, 0x19, 0x6C, 0x8C, 0x61, 0xC7, 0x1C, 0x00, 0x2F, 0xFF, 0x3E, 0x10, 0x02, 0x07, 
.................... 0xE0, 0x07, 0x80, 0x18, 0x6C, 0x0C, 0x61, 0xC7, 0x36, 0x00, 0x5F, 0xFF, 0x80, 0x21, 0x84, 0x07, 
.................... 0xE0, 0x07, 0x80, 0x1E, 0x6F, 0x0C, 0x7D, 0xEF, 0x36, 0x00, 0xBF, 0xFC, 0xFF, 0xC2, 0x08, 0x07, 
.................... 0xE0, 0x07, 0xC0, 0x0F, 0x67, 0x8C, 0x61, 0xAB, 0x36, 0x01, 0x7F, 0xFE, 0x00, 0x04, 0x10, 0x07, 
.................... 0xE0, 0x0F, 0xE0, 0x03, 0x61, 0x8C, 0x61, 0xBB, 0x7F, 0x02, 0xFF, 0xF3, 0xFF, 0xF8, 0x20, 0x07, 
.................... 0xE0, 0x0F, 0xE0, 0x13, 0x69, 0x8C, 0x61, 0x93, 0x63, 0x05, 0xFF, 0xF8, 0x00, 0x00, 0x40, 0x07, 
.................... 0xE0, 0x0F, 0xF0, 0x0E, 0x67, 0x0C, 0x7D, 0x93, 0x63, 0x09, 0xFF, 0xCF, 0xFF, 0xF8, 0x80, 0x07, 
.................... 0xE0, 0x1F, 0xF8, 0x00, 0x00, 0x00, 0x00, 0x00, 0x00, 0x10, 0x00, 0x00, 0x00, 0x01, 0x00, 0x07, 
.................... 0xE0, 0x1F, 0xF8, 0x00, 0x00, 0x00, 0x00, 0x00, 0x00, 0x3F, 0xFF, 0xFF, 0xFF, 0xFE, 0x00, 0x07, 
.................... 0xE0, 0x3F, 0xFC, 0x00, 0x00, 0x00, 0x00, 0x00, 0x00, 0x00, 0x00, 0x00, 0x00, 0x00, 0x00, 0x07, 
.................... 0xE0, 0x7F, 0xFC, 0x00, 0x00, 0x00, 0x00, 0x00, 0x00, 0x00, 0x00, 0x00, 0x00, 0x00, 0x00, 0x07, 
.................... 0xE0, 0xFF, 0xFE, 0x00, 0x00, 0x00, 0x00, 0x00, 0x00, 0x00, 0x00, 0x00, 0x00, 0x00, 0x00, 0x07, 
.................... 0xE0, 0xFF, 0xFE, 0x00, 0x00, 0x00, 0x00, 0x00, 0x00, 0x00, 0x00, 0x00, 0x00, 0x00, 0x00, 0x07, 
.................... 0xE1, 0xFF, 0xFF, 0x00, 0x00, 0x00, 0x00, 0x00, 0x00, 0x00, 0x00, 0x00, 0x00, 0x00, 0x00, 0x07, 
.................... 0xE1, 0xFF, 0xFF, 0x01, 0xB1, 0xB1, 0xBE, 0xF9, 0x8C, 0x71, 0xF3, 0xEF, 0x8F, 0x80, 0x00, 0x07, 
.................... 0xE1, 0xFF, 0xFF, 0x01, 0xB9, 0xB1, 0xB0, 0xCD, 0xCC, 0x71, 0x9B, 0x0C, 0xD8, 0xC0, 0x00, 0x07, 
.................... 0xE1, 0xFF, 0xFF, 0x01, 0xB9, 0xB1, 0xB0, 0xCD, 0xCC, 0xD9, 0x9B, 0x0C, 0xD8, 0xC0, 0x00, 0x07, 
.................... 0xE1, 0xFF, 0xFF, 0x01, 0xB5, 0x91, 0x3E, 0xF9, 0xAC, 0xD9, 0x9B, 0xEF, 0x98, 0xC0, 0x00, 0x07, 
.................... 0xE0, 0xEF, 0xFE, 0x01, 0xB5, 0x99, 0x30, 0xD9, 0xAC, 0xD9, 0x9B, 0x0D, 0x98, 0xC0, 0x00, 0x07, 
.................... 0xE0, 0xE7, 0xFE, 0x01, 0xB3, 0x8A, 0x30, 0xCD, 0x9D, 0xFD, 0x9B, 0x0C, 0xD8, 0xC0, 0x00, 0x07, 
.................... 0xE0, 0x7F, 0xFC, 0x01, 0xB3, 0x86, 0x30, 0xCD, 0x9D, 0x8D, 0x9B, 0x0C, 0xD8, 0xC0, 0x00, 0x07, 
.................... 0xE0, 0x3F, 0xF8, 0x01, 0xB1, 0x84, 0x3E, 0xCD, 0x8D, 0x8D, 0xF3, 0xEC, 0xCF, 0x80, 0x00, 0x07, 
.................... 0xE0, 0x1F, 0xF0, 0x00, 0x00, 0x00, 0x00, 0x00, 0x00, 0x00, 0x00, 0x00, 0x00, 0x00, 0x00, 0x07, 
.................... 0xE0, 0x07, 0xC0, 0x00, 0x00, 0x00, 0x00, 0x00, 0x00, 0x00, 0x00, 0x00, 0x00, 0x00, 0x00, 0x07, 
.................... 0xE0, 0x00, 0x00, 0x00, 0x00, 0x00, 0x00, 0x00, 0x00, 0x00, 0x00, 0x00, 0x00, 0x00, 0x00, 0x07, 
.................... 0xE0, 0x00, 0x00, 0x00, 0x00, 0x00, 0x00, 0x00, 0x00, 0x00, 0x00, 0x00, 0x00, 0x00, 0x00, 0x07, 
.................... 0xE0, 0x00, 0x00, 0x00, 0x00, 0x00, 0x00, 0x00, 0x00, 0x00, 0x00, 0x00, 0x00, 0x00, 0x00, 0x07, 
.................... 0xE0, 0x00, 0x00, 0x08, 0x00, 0x00, 0x00, 0x00, 0x00, 0x00, 0x00, 0x00, 0x00, 0x00, 0x00, 0x07, 
.................... 0xE0, 0x00, 0x00, 0x0C, 0x00, 0x00, 0x00, 0x00, 0x00, 0x00, 0x00, 0xE0, 0x30, 0x00, 0x00, 0x07, 
.................... 0xE0, 0x00, 0x00, 0x06, 0x00, 0x00, 0x00, 0x07, 0xFF, 0x00, 0x00, 0x70, 0x63, 0x00, 0x00, 0x07, 
.................... 0xE0, 0x00, 0x00, 0x07, 0x00, 0x00, 0x00, 0xFF, 0xFF, 0xF0, 0x00, 0x38, 0xC7, 0x00, 0x00, 0x07, 
.................... 0xE0, 0x00, 0x00, 0x03, 0x00, 0xE0, 0x03, 0x7F, 0xFF, 0xEC, 0x00, 0x1D, 0xCE, 0x00, 0x00, 0x07, 
.................... 0xE0, 0x00, 0x00, 0x03, 0x83, 0xC0, 0x0E, 0x3F, 0xFF, 0xE3, 0x80, 0x1D, 0x8C, 0x00, 0x00, 0x07, 
.................... 0xE0, 0x00, 0x00, 0x01, 0xC7, 0x80, 0x30, 0x0F, 0xFF, 0x80, 0xC0, 0x0F, 0x9C, 0x00, 0x00, 0x07, 
.................... 0xE0, 0x00, 0xE0, 0x01, 0xCF, 0x00, 0x60, 0x0D, 0xF1, 0x84, 0x20, 0x0F, 0xB8, 0x00, 0x00, 0x07, 
.................... 0xE0, 0x00, 0x71, 0xC1, 0xEF, 0x01, 0x80, 0x00, 0x00, 0x00, 0xB8, 0x07, 0xF8, 0x00, 0x60, 0x37, 
.................... 0xE0, 0x00, 0x3B, 0x81, 0xFE, 0x03, 0x30, 0x00, 0x00, 0x02, 0x3C, 0x07, 0xF8, 0x00, 0x38, 0x77, 
.................... 0xE0, 0x00, 0x3F, 0x01, 0xFE, 0x07, 0xE0, 0xB8, 0x00, 0x06, 0x7E, 0x07, 0xF8, 0x00, 0x1C, 0x67, 
.................... 0xF9, 0x86, 0x1E, 0x01, 0xFC, 0x06, 0x8C, 0x3E, 0x00, 0x69, 0xFE, 0x07, 0xF0, 0x38, 0x7E, 0xC7, 
.................... 0xFD, 0xCE, 0x1E, 0x48, 0xFC, 0x0F, 0xEB, 0x7F, 0x00, 0x67, 0xFF, 0x03, 0xF0, 0x1C, 0xCF, 0xC7, 
.................... 0xEC, 0xFC, 0x1E, 0x78, 0xF8, 0x1F, 0xD3, 0x7F, 0x01, 0x0F, 0xFF, 0x83, 0xF0, 0x07, 0x87, 0x87, 
.................... 0xEC, 0x78, 0x1E, 0x78, 0xF8, 0x1F, 0xFC, 0xFF, 0x03, 0xBF, 0xFF, 0x83, 0xF1, 0xE3, 0x07, 0xC7, 
.................... 0xFF, 0xFF, 0xFF, 0xFF, 0xF8, 0x3F, 0xF6, 0x3E, 0x03, 0xBF, 0xFF, 0xC3, 0xFF, 0xFF, 0xFF, 0xFF, 
.................... 0xFF, 0xFF, 0xFF, 0xFF, 0xF8, 0x3F, 0xFF, 0x3C, 0x07, 0xBF, 0xFF, 0xC3, 0xFF, 0xFF, 0xFF, 0xFF, 
.................... 0xFF, 0xFF, 0xFF, 0xFF, 0xF8, 0x7F, 0xBB, 0xF8, 0x0F, 0xB7, 0x3F, 0xE3, 0xFF, 0xFF, 0xFF, 0xFF, 
.................... 0xFF, 0xFF, 0xFF, 0xFF, 0xFF, 0xFF, 0xFF, 0xFF, 0xFF, 0xFF, 0xFF, 0xFF, 0xFF, 0xFF, 0xFF, 0xFF, 
.................... 0xFF, 0xFF, 0xFF, 0xFF, 0xFF, 0xFF, 0xFF, 0xFF, 0xFF, 0xFF, 0xFF, 0xFF, 0xFF, 0xFF, 0xFF, 0xFF, 
.................... 0xFF, 0xFF, 0xFF, 0xFF, 0xFF, 0xFF, 0xFF, 0xFF, 0xFF, 0xFF, 0xFF, 0xFF, 0xFF, 0xFF, 0xFF, 0xFF 
.................... }; 
.................... void glcd_portada() 
.................... {  
....................    char i,j;  
....................    signed char k;  
....................    for( i = 0 ; i < 64 ; i ++ )  
*
00CDA:  MOVLB  2
00CDC:  CLRF   x7B
00CDE:  MOVF   x7B,W
00CE0:  SUBLW  3F
00CE2:  BNC   0D7C
....................    {   
....................       for( j = 0 ; j < 16 ; j ++)  
00CE4:  CLRF   x7C
00CE6:  MOVF   x7C,W
00CE8:  SUBLW  0F
00CEA:  BNC   0D78
....................       {     
....................          for(k=7;k>-1;k--)  
00CEC:  MOVLW  07
00CEE:  MOVWF  x7D
00CF0:  MOVF   x7D,W
00CF2:  XORLW  80
00CF4:  SUBLW  7F
00CF6:  BC    0D74
....................          {       
....................             if( bit_test(PORTADA[i][j] ,7-k ))  
00CF8:  CLRF   x7F
00CFA:  MOVFF  27B,27E
00CFE:  CLRF   x81
00D00:  MOVLW  10
00D02:  MOVWF  x80
00D04:  MOVLB  0
00D06:  RCALL  0B98
00D08:  MOVFF  02,27F
00D0C:  MOVFF  01,27E
00D10:  MOVLB  2
00D12:  MOVF   x7C,W
00D14:  ADDWF  01,W
00D16:  MOVWF  01
00D18:  MOVLW  00
00D1A:  ADDWFC 02,W
00D1C:  MOVWF  03
00D1E:  MOVF   01,W
00D20:  MOVFF  FF2,27E
00D24:  BCF    FF2.7
00D26:  MOVFF  03,FF7
00D2A:  MOVLB  0
00D2C:  CALL   0208
00D30:  MOVLB  2
00D32:  BTFSC  x7E.7
00D34:  BSF    FF2.7
00D36:  MOVWF  x7E
00D38:  MOVLW  07
00D3A:  BSF    FD8.0
00D3C:  SUBFWB x7D,W
00D3E:  MOVWF  x7F
00D40:  MOVFF  27E,00
00D44:  MOVF   x7F,W
00D46:  MOVWF  01
00D48:  BZ    0D52
00D4A:  BCF    FD8.0
00D4C:  RRCF   00,F
00D4E:  DECFSZ 01,F
00D50:  BRA    0D4A
00D52:  BTFSS  00.0
00D54:  BRA    0D70
....................                glcd_pixel( j*8+k,i, ON );  
00D56:  MOVF   x7C,W
00D58:  MULLW  08
00D5A:  MOVF   FF3,W
00D5C:  ADDWF  x7D,W
00D5E:  MOVWF  x7E
00D60:  MOVWF  x96
00D62:  MOVFF  27B,297
00D66:  MOVLW  01
00D68:  MOVWF  x98
00D6A:  MOVLB  0
00D6C:  RCALL  0BF8
00D6E:  MOVLB  2
....................                  
....................          }   
00D70:  DECF   x7D,F
00D72:  BRA    0CF0
....................       }  
00D74:  INCF   x7C,F
00D76:  BRA    0CE6
....................    }  
00D78:  INCF   x7B,F
00D7A:  BRA    0CDE
.................... }  
00D7C:  MOVLB  0
00D7E:  GOTO   24C8 (RETURN)
....................  
.................... #include <finalizado.h> 
.................... //------------------------------------------------------------------------------ 
.................... // File generated by LCD Assistant 
.................... // http://en.radzio.dxp.pl/bitmap_converter/ 
.................... //------------------------------------------------------------------------------ 
....................  
.................... const unsigned char finalizado [64][16] = { 
.................... 0x00, 0x00, 0x00, 0x00, 0x00, 0x00, 0x00, 0x00, 0x00, 0x00, 0x00, 0x00, 0x00, 0x00, 0x00, 0x00, 
.................... 0x00, 0x00, 0x00, 0x00, 0x00, 0x00, 0x00, 0x00, 0x00, 0x00, 0x00, 0x00, 0x00, 0x00, 0x00, 0x00, 
.................... 0x00, 0x00, 0x00, 0x00, 0x00, 0x00, 0x00, 0x00, 0x00, 0x00, 0x00, 0x00, 0x00, 0x00, 0x00, 0x00, 
.................... 0x00, 0x00, 0x00, 0x00, 0x00, 0x00, 0x00, 0x00, 0x00, 0x00, 0x00, 0x00, 0x00, 0x00, 0x00, 0x00, 
.................... 0x00, 0x00, 0x00, 0x00, 0x00, 0x00, 0x00, 0x00, 0x00, 0x00, 0x00, 0x00, 0x00, 0x00, 0x00, 0x00, 
.................... 0x00, 0x00, 0x00, 0x00, 0x00, 0x00, 0x00, 0x00, 0x00, 0x00, 0x00, 0x00, 0x00, 0x00, 0x00, 0x00, 
.................... 0x00, 0x00, 0x00, 0x00, 0x00, 0x00, 0x00, 0x00, 0x00, 0x00, 0x00, 0x00, 0x00, 0x00, 0x00, 0x00, 
.................... 0x00, 0x00, 0x00, 0x00, 0x00, 0x00, 0x00, 0x00, 0x00, 0x00, 0x00, 0x00, 0x00, 0x00, 0x00, 0x00, 
.................... 0x00, 0x00, 0x00, 0x00, 0x00, 0x00, 0x00, 0x00, 0x00, 0x00, 0x00, 0x00, 0x00, 0x00, 0x00, 0x00, 
.................... 0x00, 0x00, 0x00, 0x00, 0x00, 0x00, 0x00, 0x00, 0x00, 0x00, 0x00, 0x00, 0x00, 0x00, 0x00, 0x00, 
.................... 0x00, 0x00, 0x00, 0x00, 0x00, 0x00, 0x00, 0x00, 0x00, 0x00, 0x00, 0x00, 0x00, 0x00, 0x00, 0x00, 
.................... 0x00, 0x00, 0x00, 0x00, 0x00, 0x00, 0x00, 0x00, 0x00, 0x00, 0x00, 0x00, 0x00, 0x00, 0x00, 0x00, 
.................... 0x00, 0x00, 0x00, 0x00, 0x00, 0x00, 0x00, 0x00, 0x00, 0x00, 0x00, 0x00, 0x00, 0x00, 0x00, 0x00, 
.................... 0x00, 0x00, 0x00, 0x00, 0x00, 0x00, 0x00, 0x00, 0x00, 0x00, 0x00, 0x00, 0x00, 0x00, 0x00, 0x00, 
.................... 0x00, 0x00, 0x00, 0x00, 0x00, 0x00, 0x00, 0x00, 0x00, 0x00, 0x00, 0x00, 0x00, 0x00, 0x00, 0x00, 
.................... 0x00, 0x01, 0xFF, 0x00, 0x00, 0x00, 0x00, 0x00, 0x00, 0x00, 0x00, 0x00, 0x00, 0x00, 0x00, 0x00, 
.................... 0x00, 0x0F, 0xFF, 0xE0, 0x00, 0x00, 0x00, 0x00, 0x00, 0x00, 0x00, 0x00, 0x00, 0x00, 0x00, 0x00, 
.................... 0x00, 0x3F, 0xFF, 0xF8, 0x00, 0x00, 0x00, 0x00, 0x00, 0x00, 0x00, 0x00, 0x00, 0x00, 0x00, 0x00, 
.................... 0x00, 0xFF, 0x01, 0xFE, 0x00, 0x00, 0x00, 0x00, 0x00, 0x00, 0x00, 0x00, 0x00, 0x00, 0x00, 0x00, 
.................... 0x01, 0xF8, 0x00, 0x1F, 0x00, 0x00, 0x00, 0x00, 0x00, 0x00, 0x00, 0x00, 0x00, 0x00, 0x00, 0x00, 
.................... 0x03, 0xE0, 0x00, 0x07, 0x80, 0x00, 0x00, 0x00, 0x00, 0x00, 0x00, 0x00, 0x00, 0x00, 0x00, 0x00, 
.................... 0x07, 0x80, 0x00, 0x03, 0xC0, 0x00, 0x00, 0x00, 0x00, 0x00, 0x00, 0x00, 0x00, 0x00, 0x00, 0x00, 
.................... 0x0F, 0x00, 0x00, 0x01, 0xE0, 0x00, 0x00, 0x00, 0x00, 0x00, 0x00, 0x00, 0x00, 0x00, 0x00, 0x00, 
.................... 0x1E, 0x00, 0x00, 0x00, 0xF0, 0x00, 0x00, 0x00, 0x00, 0x00, 0x00, 0x00, 0x00, 0x00, 0x00, 0x00, 
.................... 0x1C, 0x00, 0x00, 0x07, 0x70, 0x00, 0x00, 0x00, 0x00, 0x00, 0x00, 0x00, 0x00, 0x00, 0x00, 0x00, 
.................... 0x3C, 0x00, 0x00, 0x1E, 0x38, 0x00, 0x00, 0x00, 0x00, 0x00, 0x00, 0x00, 0x00, 0x00, 0x00, 0x00, 
.................... 0x38, 0x00, 0x00, 0x78, 0x38, 0x00, 0x00, 0x00, 0x00, 0x00, 0x00, 0x00, 0x00, 0x00, 0x00, 0x00, 
.................... 0x38, 0x00, 0x01, 0xF0, 0x3C, 0x00, 0x00, 0x00, 0x00, 0x00, 0x00, 0x00, 0x00, 0x00, 0x00, 0x00, 
.................... 0x70, 0x00, 0x07, 0xC0, 0x1C, 0x00, 0x00, 0x00, 0x00, 0x00, 0x00, 0x00, 0x00, 0x00, 0x00, 0x00, 
.................... 0x70, 0x00, 0x1F, 0x80, 0x1C, 0x00, 0x00, 0x00, 0x00, 0x00, 0x00, 0x00, 0x00, 0x00, 0x00, 0x00, 
.................... 0x70, 0x60, 0x3F, 0x00, 0x1C, 0x00, 0x00, 0x00, 0x00, 0x00, 0x00, 0x00, 0x00, 0x00, 0x00, 0x00, 
.................... 0x70, 0x78, 0x7E, 0x00, 0x1C, 0x00, 0x00, 0x00, 0x00, 0x00, 0x00, 0x00, 0x00, 0x00, 0x00, 0x00, 
.................... 0x70, 0x3C, 0xFC, 0x00, 0x1C, 0x00, 0x00, 0x00, 0x00, 0x00, 0x00, 0x00, 0x00, 0x00, 0x00, 0x00, 
.................... 0x70, 0x1F, 0xF8, 0x00, 0x1C, 0x00, 0x00, 0x00, 0x00, 0x00, 0x00, 0x00, 0x00, 0x00, 0x00, 0x00, 
.................... 0x38, 0x0F, 0xF0, 0x00, 0x3C, 0x00, 0x00, 0x00, 0x00, 0x00, 0x00, 0x00, 0x00, 0x00, 0x00, 0x00, 
.................... 0x38, 0x07, 0xF0, 0x00, 0x38, 0x00, 0x00, 0x00, 0x00, 0x00, 0x00, 0x00, 0x00, 0x00, 0x00, 0x00, 
.................... 0x38, 0x07, 0xE0, 0x00, 0x38, 0x00, 0x00, 0x00, 0x00, 0x00, 0x00, 0x00, 0x00, 0x00, 0x00, 0x00, 
.................... 0x1C, 0x03, 0xC0, 0x00, 0x70, 0x00, 0x00, 0x00, 0x00, 0x00, 0x00, 0x00, 0x00, 0x00, 0x00, 0x00, 
.................... 0x1E, 0x01, 0x80, 0x00, 0xF0, 0x00, 0x00, 0x00, 0x00, 0x00, 0x00, 0x00, 0x00, 0x00, 0x00, 0x00, 
.................... 0x0F, 0x00, 0x00, 0x01, 0xE0, 0x00, 0x00, 0x00, 0x00, 0x00, 0x00, 0x00, 0x00, 0x00, 0x00, 0x00, 
.................... 0x07, 0x80, 0x00, 0x03, 0xC0, 0x00, 0x00, 0x00, 0x00, 0x00, 0x00, 0x00, 0x00, 0x00, 0x00, 0x00, 
.................... 0x03, 0xC0, 0x00, 0x07, 0x80, 0x00, 0x00, 0x00, 0x00, 0x00, 0x00, 0x00, 0x00, 0x00, 0x00, 0x00, 
.................... 0x01, 0xF0, 0x00, 0x1F, 0x00, 0x00, 0x00, 0x00, 0x00, 0x00, 0x00, 0x00, 0x00, 0x00, 0x00, 0x00, 
.................... 0x00, 0xFE, 0x00, 0xFE, 0x00, 0x00, 0x00, 0x00, 0x00, 0x00, 0x00, 0x00, 0x00, 0x00, 0x00, 0x00, 
.................... 0x00, 0x3F, 0xFF, 0xF8, 0x00, 0x00, 0x00, 0x00, 0x00, 0x00, 0x00, 0x00, 0x00, 0x00, 0x00, 0x00, 
.................... 0x00, 0x0F, 0xFF, 0xE0, 0x00, 0x00, 0x00, 0x00, 0x00, 0x00, 0x00, 0x00, 0x00, 0x00, 0x00, 0x00, 
.................... 0x00, 0x01, 0xFF, 0x00, 0x00, 0x00, 0x00, 0x00, 0x00, 0x00, 0x00, 0x00, 0x00, 0x00, 0x00, 0x00, 
.................... 0x00, 0x00, 0x00, 0x00, 0x00, 0x00, 0x00, 0x00, 0x00, 0x00, 0x00, 0x00, 0x00, 0x00, 0x00, 0x00, 
.................... 0x00, 0x00, 0x00, 0x00, 0x00, 0x00, 0x00, 0x00, 0x00, 0x00, 0x00, 0x00, 0x00, 0x00, 0x00, 0x00, 
.................... 0x00, 0x00, 0x00, 0x00, 0x00, 0x00, 0x00, 0x00, 0x00, 0x00, 0x00, 0x00, 0x00, 0x00, 0x00, 0x00, 
.................... 0x00, 0x00, 0x00, 0x00, 0x00, 0x00, 0x00, 0x00, 0x00, 0x00, 0x00, 0x00, 0x00, 0x00, 0x00, 0x00, 
.................... 0x00, 0x00, 0x00, 0x00, 0x00, 0x00, 0x00, 0x00, 0x00, 0x00, 0x00, 0x00, 0x00, 0x00, 0x00, 0x00, 
.................... 0x00, 0x00, 0x00, 0x00, 0x00, 0x00, 0x00, 0x00, 0x00, 0x00, 0x00, 0x00, 0x00, 0x00, 0x00, 0x00, 
.................... 0x00, 0x00, 0x00, 0x00, 0x00, 0x00, 0x00, 0x00, 0x00, 0x00, 0x00, 0x00, 0x00, 0x00, 0x00, 0x00, 
.................... 0x00, 0x00, 0x00, 0x00, 0x00, 0x00, 0x00, 0x00, 0x00, 0x00, 0x00, 0x00, 0x00, 0x00, 0x00, 0x00, 
.................... 0x00, 0x00, 0x00, 0x00, 0x00, 0x00, 0x00, 0x00, 0x00, 0x00, 0x00, 0x00, 0x00, 0x00, 0x00, 0x00, 
.................... 0x00, 0x00, 0x00, 0x00, 0x00, 0x00, 0x00, 0x00, 0x00, 0x00, 0x00, 0x00, 0x00, 0x00, 0x00, 0x00, 
.................... 0x00, 0x00, 0x00, 0x00, 0x00, 0x00, 0x00, 0x00, 0x00, 0x00, 0x00, 0x00, 0x00, 0x00, 0x00, 0x00, 
.................... 0x00, 0x00, 0x00, 0x00, 0x00, 0x00, 0x00, 0x00, 0x00, 0x00, 0x00, 0x00, 0x00, 0x00, 0x00, 0x00, 
.................... 0x00, 0x00, 0x00, 0x00, 0x00, 0x00, 0x00, 0x00, 0x00, 0x00, 0x00, 0x00, 0x00, 0x00, 0x00, 0x00, 
.................... 0x00, 0x00, 0x00, 0x00, 0x00, 0x00, 0x00, 0x00, 0x00, 0x00, 0x00, 0x00, 0x00, 0x00, 0x00, 0x00, 
.................... 0x00, 0x00, 0x00, 0x00, 0x00, 0x00, 0x00, 0x00, 0x00, 0x00, 0x00, 0x00, 0x00, 0x00, 0x00, 0x00, 
.................... 0x00, 0x00, 0x00, 0x00, 0x00, 0x00, 0x00, 0x00, 0x00, 0x00, 0x00, 0x00, 0x00, 0x00, 0x00, 0x00, 
.................... 0x00, 0x00, 0x00, 0x00, 0x00, 0x00, 0x00, 0x00, 0x00, 0x00, 0x00, 0x00, 0x00, 0x00, 0x00, 0x00 
.................... }; 
.................... void glcd_finalizado() 
.................... {  
....................    char i,j;  
....................    signed char k;  
....................    for( i = 0 ; i < 64 ; i ++ )  
*
015D6:  MOVLB  2
015D8:  CLRF   x7B
015DA:  MOVF   x7B,W
015DC:  SUBLW  3F
015DE:  BNC   167C
....................    {   
....................       for( j = 0 ; j < 16 ; j ++)  
015E0:  CLRF   x7C
015E2:  MOVF   x7C,W
015E4:  SUBLW  0F
015E6:  BNC   1678
....................       {     
....................          for(k=7;k>-1;k--)  
015E8:  MOVLW  07
015EA:  MOVWF  x7D
015EC:  MOVF   x7D,W
015EE:  XORLW  80
015F0:  SUBLW  7F
015F2:  BC    1674
....................          {       
....................             if( bit_test(finalizado[i][j] ,7-k ))  
015F4:  CLRF   x7F
015F6:  MOVFF  27B,27E
015FA:  CLRF   x81
015FC:  MOVLW  10
015FE:  MOVWF  x80
01600:  MOVLB  0
01602:  CALL   0B98
01606:  MOVFF  02,27F
0160A:  MOVFF  01,27E
0160E:  MOVLB  2
01610:  MOVF   x7C,W
01612:  ADDWF  01,W
01614:  MOVWF  01
01616:  MOVLW  00
01618:  ADDWFC 02,W
0161A:  MOVWF  03
0161C:  MOVF   01,W
0161E:  MOVFF  FF2,27E
01622:  BCF    FF2.7
01624:  MOVFF  03,FF7
01628:  MOVLB  0
0162A:  CALL   061A
0162E:  MOVLB  2
01630:  BTFSC  x7E.7
01632:  BSF    FF2.7
01634:  MOVWF  x7E
01636:  MOVLW  07
01638:  BSF    FD8.0
0163A:  SUBFWB x7D,W
0163C:  MOVWF  x7F
0163E:  MOVFF  27E,00
01642:  MOVF   x7F,W
01644:  MOVWF  01
01646:  BZ    1650
01648:  BCF    FD8.0
0164A:  RRCF   00,F
0164C:  DECFSZ 01,F
0164E:  BRA    1648
01650:  BTFSS  00.0
01652:  BRA    1670
....................                glcd_pixel( j*8+k,i, ON );  
01654:  MOVF   x7C,W
01656:  MULLW  08
01658:  MOVF   FF3,W
0165A:  ADDWF  x7D,W
0165C:  MOVWF  x7E
0165E:  MOVWF  x96
01660:  MOVFF  27B,297
01664:  MOVLW  01
01666:  MOVWF  x98
01668:  MOVLB  0
0166A:  CALL   0BF8
0166E:  MOVLB  2
....................                  
....................          }   
01670:  DECF   x7D,F
01672:  BRA    15EC
....................       }  
01674:  INCF   x7C,F
01676:  BRA    15E2
....................    }  
01678:  INCF   x7B,F
0167A:  BRA    15DA
.................... }  
0167C:  MOVLB  0
0167E:  RETLW  00
....................  
.................... #include <1wire.c> //sensor ds1820 
....................  
.................... // (C) copyright 2003 j.d.sandoz / jds-pic !at! losdos.dyndns.org  
....................  
.................... // released under the GNU GENERAL PUBLIC LICENSE (GPL)  
.................... // refer to http://www.gnu.org/licenses/gpl.txt  
....................  
.................... // This program is free software; you can redistribute it and/or modify  
.................... // it under the terms of the GNU General Public License as published by  
.................... // the Free Software Foundation; either version 2 of the License, or  
.................... // (at your option) any later version.  
....................  
.................... // This program is distributed in the hope that it will be useful,  
.................... // but WITHOUT ANY WARRANTY; without even the implied warranty of  
.................... // MERCHANTABILITY or FITNESS FOR A PARTICULAR PURPOSE.  See the  
.................... // GNU General Public License for more details.  
....................  
.................... // You should have received a copy of the GNU General Public License  
.................... // along with this program; if not, write to the Free Software  
.................... // Foundation, Inc., 59 Temple Place, Suite 330, Boston, MA 02111-1307 USA  
....................  
.................... /***********************1Wire Class***********************/  
.................... /*Description: This class handles all communication */  
.................... /* between the processor and the 1wire */  
.................... /* sensors.  
.................... /*********************************************************/  
....................  
.................... /*-------1-wire definitions-------*/  
.................... #define ONE_WIRE_PIN PIN_C1 //pin por el que vamos a tomar el dato 
....................  
.................... /*******************1-wire communication functions********************/  
....................  
.................... /************onewire_reset*************************************************/  
.................... /*This function initiates the 1wire bus */  
.................... /* */  
.................... /*PARAMETERS: */  
.................... /*RETURNS: */  
.................... /*********************************************************************/  
....................  
.................... void onewire_reset()  // OK if just using a single permanently connected device  
.................... {  
....................  output_low(ONE_WIRE_PIN);  
*
016A4:  BCF    F94.1
016A6:  BCF    F8B.1
....................  delay_us( 500 ); // pull 1-wire low for reset pulse  
016A8:  MOVLW  02
016AA:  MOVLB  2
016AC:  MOVWF  x84
016AE:  MOVLW  F8
016B0:  MOVWF  x85
016B2:  MOVLB  0
016B4:  RCALL  1680
016B6:  MOVLB  2
016B8:  DECFSZ x84,F
016BA:  BRA    16AE
....................  output_float(ONE_WIRE_PIN); // float 1-wire high  
016BC:  BSF    F94.1
....................  delay_us( 500 ); // wait-out remaining initialisation window.  
016BE:  MOVLW  02
016C0:  MOVWF  x84
016C2:  MOVLW  F8
016C4:  MOVWF  x85
016C6:  MOVLB  0
016C8:  RCALL  1680
016CA:  MOVLB  2
016CC:  DECFSZ x84,F
016CE:  BRA    16C2
....................  output_float(ONE_WIRE_PIN);  
016D0:  BSF    F94.1
.................... }  
016D2:  MOVLB  0
016D4:  RETLW  00
....................  
.................... /*********************** onewire_write() ********************************/  
.................... /*This function writes a byte to the sensor.*/  
.................... /* */  
.................... /*Parameters: byte - the byte to be written to the 1-wire */  
.................... /*Returns: */  
.................... /*********************************************************************/  
....................  
.................... void onewire_write(int data)  
.................... {  
....................  int count;  
....................  
....................  for (count=0; count<8; ++count)  
016D6:  MOVLB  2
016D8:  CLRF   x85
016DA:  MOVF   x85,W
016DC:  SUBLW  07
016DE:  BNC   170A
....................  {  
....................   output_low(ONE_WIRE_PIN);  
016E0:  BCF    F94.1
016E2:  BCF    F8B.1
....................   delay_us( 2 ); // pull 1-wire low to initiate write time-slot.  
016E4:  BRA    16E6
016E6:  BRA    16E8
....................   output_bit(ONE_WIRE_PIN, shift_right(&data,1,0)); // set output bit on 1-wire  
016E8:  BCF    FD8.0
016EA:  RRCF   x84,F
016EC:  BC    16F2
016EE:  BCF    F8B.1
016F0:  BRA    16F4
016F2:  BSF    F8B.1
016F4:  BCF    F94.1
....................   delay_us( 60 ); // wait until end of write slot.  
016F6:  MOVLW  27
016F8:  MOVWF  00
016FA:  DECFSZ 00,F
016FC:  BRA    16FA
016FE:  BRA    1700
....................   output_float(ONE_WIRE_PIN); // set 1-wire high again,  
01700:  BSF    F94.1
....................   delay_us( 2 ); // for more than 1us minimum.  
01702:  BRA    1704
01704:  BRA    1706
....................  }  
01706:  INCF   x85,F
01708:  BRA    16DA
.................... }  
0170A:  MOVLB  0
0170C:  RETLW  00
....................  
.................... /*********************** read1wire() *********************************/  
.................... /*This function reads the 8 -bit data via the 1-wire sensor. */  
.................... /* */  
.................... /*Parameters: */  
.................... /*Returns: 8-bit (1-byte) data from sensor */  
.................... /*********************************************************************/  
....................  
.................... int onewire_read()   
.................... {  
....................  int count, data;  
....................  
....................  for (count=0; count<8; ++count)  
0170E:  MOVLB  2
01710:  CLRF   x84
01712:  MOVF   x84,W
01714:  SUBLW  07
01716:  BNC   1746
....................  {  
....................   output_low(ONE_WIRE_PIN);  
01718:  BCF    F94.1
0171A:  BCF    F8B.1
....................   delay_us( 2 ); // pull 1-wire low to initiate read time-slot.  
0171C:  BRA    171E
0171E:  BRA    1720
....................   output_float(ONE_WIRE_PIN); // now let 1-wire float high,  
01720:  BSF    F94.1
....................   delay_us( 8 ); // let device state stabilise,  
01722:  MOVLW  05
01724:  MOVWF  00
01726:  DECFSZ 00,F
01728:  BRA    1726
....................   shift_right(&data,1,input(ONE_WIRE_PIN)); // and load result.  
0172A:  BSF    F94.1
0172C:  BTFSC  F82.1
0172E:  BRA    1734
01730:  BCF    FD8.0
01732:  BRA    1736
01734:  BSF    FD8.0
01736:  RRCF   x85,F
....................   delay_us( 120 ); // wait until end of read slot.  
01738:  MOVLW  4F
0173A:  MOVWF  00
0173C:  DECFSZ 00,F
0173E:  BRA    173C
01740:  BRA    1742
....................  }  
01742:  INCF   x84,F
01744:  BRA    1712
....................  
....................  return( data );  
01746:  MOVFF  285,01
.................... }  
0174A:  MOVLB  0
0174C:  RETLW  00
....................  
.................... #include <ds1820.c> 
....................  
....................  
....................  
.................... float ds1820_read() 
.................... {  
*
018FE:  MOVLB  2
01900:  CLRF   x7B
....................  int8 busy=0, temp1, temp2;   
....................  signed int16 temp3;  
....................  float result;  
....................  
....................  onewire_reset();  
01902:  MOVLB  0
01904:  RCALL  16A4
....................  onewire_write(0xCC);  
01906:  MOVLW  CC
01908:  MOVLB  2
0190A:  MOVWF  x84
0190C:  MOVLB  0
0190E:  RCALL  16D6
....................  onewire_write(0x44);  
01910:  MOVLW  44
01912:  MOVLB  2
01914:  MOVWF  x84
01916:  MOVLB  0
01918:  RCALL  16D6
....................  
....................  while (busy == 0)  
....................   busy = onewire_read();  
0191A:  MOVLB  2
0191C:  MOVF   x7B,F
0191E:  BNZ   192A
01920:  MOVLB  0
01922:  RCALL  170E
01924:  MOVFF  01,27B
01928:  BRA    191A
....................  
....................  onewire_reset();  
0192A:  MOVLB  0
0192C:  RCALL  16A4
....................  onewire_write(0xCC);  
0192E:  MOVLW  CC
01930:  MOVLB  2
01932:  MOVWF  x84
01934:  MOVLB  0
01936:  RCALL  16D6
....................  onewire_write(0xBE);  
01938:  MOVLW  BE
0193A:  MOVLB  2
0193C:  MOVWF  x84
0193E:  MOVLB  0
01940:  RCALL  16D6
....................  temp1 = onewire_read();  
01942:  RCALL  170E
01944:  MOVFF  01,27C
....................  temp2 = onewire_read();  
01948:  RCALL  170E
0194A:  MOVFF  01,27D
....................  temp3 = make16(temp2, temp1);  
0194E:  MOVFF  27D,27F
01952:  MOVFF  27C,27E
....................    
....................  result = (float) temp3 / 2.0;   //Calculation for DS18S20 with 0.5 deg C resolution  
01956:  MOVFF  27F,285
0195A:  MOVFF  27E,284
0195E:  BRA    174E
01960:  MOVFF  00,284
01964:  MOVFF  01,285
01968:  MOVFF  02,286
0196C:  MOVFF  03,287
01970:  MOVFF  03,28B
01974:  MOVFF  02,28A
01978:  MOVFF  01,289
0197C:  MOVFF  00,288
01980:  MOVLB  2
01982:  CLRF   x8F
01984:  CLRF   x8E
01986:  CLRF   x8D
01988:  MOVLW  80
0198A:  MOVWF  x8C
0198C:  MOVLB  0
0198E:  RCALL  17A0
01990:  MOVFF  03,283
01994:  MOVFF  02,282
01998:  MOVFF  01,281
0199C:  MOVFF  00,280
.................... // result = (float) temp3 / 16.0;  //Calculation for DS18B20 with 0.1 deg C resolution  
....................    
....................  delay_ms(200);  
019A0:  MOVLW  C8
019A2:  MOVLB  2
019A4:  MOVWF  x84
019A6:  MOVLB  0
019A8:  CALL   0D82
....................  return(result);  
019AC:  MOVFF  280,00
019B0:  MOVFF  281,01
019B4:  MOVFF  282,02
019B8:  MOVFF  283,03
.................... }  
019BC:  RETLW  00
....................  
....................  
....................  
.................... int s,dayset,monthset,yrset,hrset,minset,hr,min,sec,oldsec,dia,mes,dow,yr,bandera =0,tempminima = 18,tempset,tempmaxima = 28,tempset2,repos = 10,reposset,rieg = 10,riegset,num = 5,numset,dias=1,diasset; 
.................... int lun=0,mar=0,mie=0,jue=0,vie=0,sab,dom= 0; 
.................... unsigned int1 am_pm; 
.................... float temp=0; 
.................... char time[]; 
.................... char tim[]; 
.................... char tim2[]; 
.................... char Pgeneral[20]; 
.................... char Pgeneral6[20]; 
.................... char Pgeneral2[20]; 
.................... char Pgeneral3[20]; 
.................... char Pgeneral4[20]; 
.................... char Pgeneral5[20]; 
....................  
.................... char MENSAJE1[]="SISTEMA INVERNADERO"; 
.................... char SETTIME[]="Configurar Sistema?"; 
.................... char TIMENOW[]="Hora/Fecha Actual:"; 
.................... char HORA[] = "Conf Hora & Fecha"; 
.................... char TEMPERATURA[] = "Conf Temperatura"; 
.................... char RIEGO[] = "Conf Riego"; 
.................... char DOMINGO[]=   "Domingo"; 
.................... char LUNES[]=       "Lunes"; 
.................... char LU[]="Lu"; 
.................... char MA[]="Ma"; 
.................... char MI[]="Mi"; 
.................... char JU[]="Ju"; 
.................... char VI[]="Vi"; 
.................... char SA[]="Sa"; 
.................... char D[]="Do"; 
.................... char MARTES[]=     "Martes"; 
.................... char MIERCOLES[]= "Miercoles"; 
.................... char JUEVES[]=      "Jueves"; 
.................... char VIERNES[]=     "Viernes"; 
.................... char SABADO[]=     "Sabado"; 
.................... char MIERCO[]= "Mierco"; 
.................... char VIERNE[]=     "Vierne"; 
.................... char DOMING[]=   "Doming"; 
.................... char SI[]="Si"; 
.................... char NOO[]="No"; 
.................... char SET_TIME[]="Hora"; 
.................... char SETDATE[]="Fecha"; 
.................... char SALIR[]="Salir"; 
.................... char AJUSTEHORA[]="AJUSTE DE HORA"; 
.................... char AJUSTEFECHA[]="AJUSTE DE FECHA"; 
.................... char ESTABLECER[]="Establecer"; 
.................... char AM[]="AM"; 
.................... char PM[]="PM"; 
.................... char h[]="h"; 
.................... char m[]="m"; 
.................... char DATOS[]="Datos"; 
.................... char DATOS2[]="Guardados!"; 
.................... char TEMPACTUAL[]= "TEMP ACTUAL"; 
.................... char MINI[]="Min"; 
.................... char MAX[] ="Max"; 
.................... char TEMP_MIN[]="Temp Minima"; 
.................... char TEMP_MAX[]="Temp Maxima"; 
.................... char NEBULIZACION[] = "Nebulizacion"; 
.................... char GOTEO[]="Goteo"; 
.................... char CON_RIEGO[]="Configurar Riego"; 
.................... char SENSADO[]="Sensado"; 
.................... char TEMPORIZADO[]="Temporizado"; 
.................... char TIEMPO_REPOSO[] ="Tiempo de Reposo"; 
.................... char TIEMPO_RIEGO[] = "Tiempo de Riego"; 
.................... char NUM_CICLOS[] = "Numero de Ciclos"; 
.................... char CICLOS[]="Ciclos"; 
.................... char DIAS_TRABAJO[] = "Dias de Trabajo";  
....................  
.................... #define NIVEL  INPUT(PIN_B2) 
....................  
....................  
.................... void leerRTC(){ 
....................     ds1307_get_time(hr,am_pm,min,sec); 
....................     ds1307_get_date(dia,mes,yr,dow); 
....................      
....................     if(am_pm==1) 
*
0139C:  BTFSS  26.0
0139E:  BRA    13A6
....................     time='P'; 
013A0:  MOVLW  50
013A2:  MOVWF  2B
....................     else 
013A4:  BRA    13AA
....................     time='A'; 
013A6:  MOVLW  41
013A8:  MOVWF  2B
....................     delay_us(100); 
013AA:  MOVLW  42
013AC:  MOVWF  00
013AE:  DECFSZ 00,F
013B0:  BRA    13AE
013B2:  NOP   
.................... } 
013B4:  RETLW  00
....................  
....................  
.................... void main() 
.................... { 
*
01D2C:  CLRF   FF8
01D2E:  BCF    FD0.7
01D30:  CLRF   FEA
01D32:  CLRF   FE9
01D34:  BCF    FB8.3
01D36:  MOVLW  0C
01D38:  MOVWF  FAF
01D3A:  MOVLW  A2
01D3C:  MOVWF  FAC
01D3E:  MOVLW  90
01D40:  MOVWF  FAB
01D42:  CLRF   12
01D44:  MOVLW  12
01D46:  MOVWF  13
01D48:  MOVLW  1C
01D4A:  MOVWF  15
01D4C:  MOVLW  0A
01D4E:  MOVWF  17
01D50:  MOVWF  19
01D52:  MOVLW  05
01D54:  MOVWF  1B
01D56:  MOVLW  01
01D58:  MOVWF  1D
01D5A:  CLRF   1F
01D5C:  CLRF   20
01D5E:  CLRF   21
01D60:  CLRF   22
01D62:  CLRF   23
01D64:  CLRF   25
01D66:  CLRF   2A
01D68:  CLRF   29
01D6A:  CLRF   28
01D6C:  CLRF   27
01D6E:  MOVF   FC1,W
01D70:  ANDLW  C0
01D72:  IORLW  0F
01D74:  MOVWF  FC1
01D76:  MOVLW  07
01D78:  MOVWF  FB4
01D7A:  MOVLW  53
01D7C:  MOVWF  xA6
01D7E:  MOVLW  49
01D80:  MOVWF  xA7
01D82:  MOVLW  53
01D84:  MOVWF  xA8
01D86:  MOVLW  54
01D88:  MOVWF  xA9
01D8A:  MOVLW  45
01D8C:  MOVWF  xAA
01D8E:  MOVLW  4D
01D90:  MOVWF  xAB
01D92:  MOVLW  41
01D94:  MOVWF  xAC
01D96:  MOVLW  20
01D98:  MOVWF  xAD
01D9A:  MOVLW  49
01D9C:  MOVWF  xAE
01D9E:  MOVLW  4E
01DA0:  MOVWF  xAF
01DA2:  MOVLW  56
01DA4:  MOVWF  xB0
01DA6:  MOVLW  45
01DA8:  MOVWF  xB1
01DAA:  MOVLW  52
01DAC:  MOVWF  xB2
01DAE:  MOVLW  4E
01DB0:  MOVWF  xB3
01DB2:  MOVLW  41
01DB4:  MOVWF  xB4
01DB6:  MOVLW  44
01DB8:  MOVWF  xB5
01DBA:  MOVLW  45
01DBC:  MOVWF  xB6
01DBE:  MOVLW  52
01DC0:  MOVWF  xB7
01DC2:  MOVLW  4F
01DC4:  MOVWF  xB8
01DC6:  CLRF   xB9
01DC8:  MOVLW  43
01DCA:  MOVWF  xBA
01DCC:  MOVLW  6F
01DCE:  MOVWF  xBB
01DD0:  MOVLW  6E
01DD2:  MOVWF  xBC
01DD4:  MOVLW  66
01DD6:  MOVWF  xBD
01DD8:  MOVLW  69
01DDA:  MOVWF  xBE
01DDC:  MOVLW  67
01DDE:  MOVWF  xBF
01DE0:  MOVLW  75
01DE2:  MOVWF  xC0
01DE4:  MOVLW  72
01DE6:  MOVWF  xC1
01DE8:  MOVLW  61
01DEA:  MOVWF  xC2
01DEC:  MOVLW  72
01DEE:  MOVWF  xC3
01DF0:  MOVLW  20
01DF2:  MOVWF  xC4
01DF4:  MOVLW  53
01DF6:  MOVWF  xC5
01DF8:  MOVLW  69
01DFA:  MOVWF  xC6
01DFC:  MOVLW  73
01DFE:  MOVWF  xC7
01E00:  MOVLW  74
01E02:  MOVWF  xC8
01E04:  MOVLW  65
01E06:  MOVWF  xC9
01E08:  MOVLW  6D
01E0A:  MOVWF  xCA
01E0C:  MOVLW  61
01E0E:  MOVWF  xCB
01E10:  MOVLW  3F
01E12:  MOVWF  xCC
01E14:  CLRF   xCD
01E16:  MOVLW  48
01E18:  MOVWF  xCE
01E1A:  MOVLW  6F
01E1C:  MOVWF  xCF
01E1E:  MOVLW  72
01E20:  MOVWF  xD0
01E22:  MOVLW  61
01E24:  MOVWF  xD1
01E26:  MOVLW  2F
01E28:  MOVWF  xD2
01E2A:  MOVLW  46
01E2C:  MOVWF  xD3
01E2E:  MOVLW  65
01E30:  MOVWF  xD4
01E32:  MOVLW  63
01E34:  MOVWF  xD5
01E36:  MOVLW  68
01E38:  MOVWF  xD6
01E3A:  MOVLW  61
01E3C:  MOVWF  xD7
01E3E:  MOVLW  20
01E40:  MOVWF  xD8
01E42:  MOVLW  41
01E44:  MOVWF  xD9
01E46:  MOVLW  63
01E48:  MOVWF  xDA
01E4A:  MOVLW  74
01E4C:  MOVWF  xDB
01E4E:  MOVLW  75
01E50:  MOVWF  xDC
01E52:  MOVLW  61
01E54:  MOVWF  xDD
01E56:  MOVLW  6C
01E58:  MOVWF  xDE
01E5A:  MOVLW  3A
01E5C:  MOVWF  xDF
01E5E:  CLRF   xE0
01E60:  MOVLW  43
01E62:  MOVWF  xE1
01E64:  MOVLW  6F
01E66:  MOVWF  xE2
01E68:  MOVLW  6E
01E6A:  MOVWF  xE3
01E6C:  MOVLW  66
01E6E:  MOVWF  xE4
01E70:  MOVLW  20
01E72:  MOVWF  xE5
01E74:  MOVLW  48
01E76:  MOVWF  xE6
01E78:  MOVLW  6F
01E7A:  MOVWF  xE7
01E7C:  MOVLW  72
01E7E:  MOVWF  xE8
01E80:  MOVLW  61
01E82:  MOVWF  xE9
01E84:  MOVLW  20
01E86:  MOVWF  xEA
01E88:  MOVLW  26
01E8A:  MOVWF  xEB
01E8C:  MOVLW  20
01E8E:  MOVWF  xEC
01E90:  MOVLW  46
01E92:  MOVWF  xED
01E94:  MOVLW  65
01E96:  MOVWF  xEE
01E98:  MOVLW  63
01E9A:  MOVWF  xEF
01E9C:  MOVLW  68
01E9E:  MOVWF  xF0
01EA0:  MOVLW  61
01EA2:  MOVWF  xF1
01EA4:  CLRF   xF2
01EA6:  MOVLW  43
01EA8:  MOVWF  xF3
01EAA:  MOVLW  6F
01EAC:  MOVWF  xF4
01EAE:  MOVLW  6E
01EB0:  MOVWF  xF5
01EB2:  MOVLW  66
01EB4:  MOVWF  xF6
01EB6:  MOVLW  20
01EB8:  MOVWF  xF7
01EBA:  MOVLW  54
01EBC:  MOVWF  xF8
01EBE:  MOVLW  65
01EC0:  MOVWF  xF9
01EC2:  MOVLW  6D
01EC4:  MOVWF  xFA
01EC6:  MOVLW  70
01EC8:  MOVWF  xFB
01ECA:  MOVLW  65
01ECC:  MOVWF  xFC
01ECE:  MOVLW  72
01ED0:  MOVWF  xFD
01ED2:  MOVLW  61
01ED4:  MOVWF  xFE
01ED6:  MOVLW  74
01ED8:  MOVWF  xFF
01EDA:  MOVLW  75
01EDC:  MOVLB  1
01EDE:  MOVWF  x00
01EE0:  MOVLW  72
01EE2:  MOVWF  x01
01EE4:  MOVLW  61
01EE6:  MOVWF  x02
01EE8:  CLRF   x03
01EEA:  MOVLW  43
01EEC:  MOVWF  x04
01EEE:  MOVLW  6F
01EF0:  MOVWF  x05
01EF2:  MOVLW  6E
01EF4:  MOVWF  x06
01EF6:  MOVLW  66
01EF8:  MOVWF  x07
01EFA:  MOVLW  20
01EFC:  MOVWF  x08
01EFE:  MOVLW  52
01F00:  MOVWF  x09
01F02:  MOVLW  69
01F04:  MOVWF  x0A
01F06:  MOVLW  65
01F08:  MOVWF  x0B
01F0A:  MOVLW  67
01F0C:  MOVWF  x0C
01F0E:  MOVLW  6F
01F10:  MOVWF  x0D
01F12:  CLRF   x0E
01F14:  MOVLW  44
01F16:  MOVWF  x0F
01F18:  MOVLW  6F
01F1A:  MOVWF  x10
01F1C:  MOVLW  6D
01F1E:  MOVWF  x11
01F20:  MOVLW  69
01F22:  MOVWF  x12
01F24:  MOVLW  6E
01F26:  MOVWF  x13
01F28:  MOVLW  67
01F2A:  MOVWF  x14
01F2C:  MOVLW  6F
01F2E:  MOVWF  x15
01F30:  CLRF   x16
01F32:  MOVLW  4C
01F34:  MOVWF  x17
01F36:  MOVLW  75
01F38:  MOVWF  x18
01F3A:  MOVLW  6E
01F3C:  MOVWF  x19
01F3E:  MOVLW  65
01F40:  MOVWF  x1A
01F42:  MOVLW  73
01F44:  MOVWF  x1B
01F46:  CLRF   x1C
01F48:  MOVLW  4C
01F4A:  MOVWF  x1D
01F4C:  MOVLW  75
01F4E:  MOVWF  x1E
01F50:  CLRF   x1F
01F52:  MOVLW  4D
01F54:  MOVWF  x20
01F56:  MOVLW  61
01F58:  MOVWF  x21
01F5A:  CLRF   x22
01F5C:  MOVLW  4D
01F5E:  MOVWF  x23
01F60:  MOVLW  69
01F62:  MOVWF  x24
01F64:  CLRF   x25
01F66:  MOVLW  4A
01F68:  MOVWF  x26
01F6A:  MOVLW  75
01F6C:  MOVWF  x27
01F6E:  CLRF   x28
01F70:  MOVLW  56
01F72:  MOVWF  x29
01F74:  MOVLW  69
01F76:  MOVWF  x2A
01F78:  CLRF   x2B
01F7A:  MOVLW  53
01F7C:  MOVWF  x2C
01F7E:  MOVLW  61
01F80:  MOVWF  x2D
01F82:  CLRF   x2E
01F84:  MOVLW  44
01F86:  MOVWF  x2F
01F88:  MOVLW  6F
01F8A:  MOVWF  x30
01F8C:  CLRF   x31
01F8E:  MOVLW  4D
01F90:  MOVWF  x32
01F92:  MOVLW  61
01F94:  MOVWF  x33
01F96:  MOVLW  72
01F98:  MOVWF  x34
01F9A:  MOVLW  74
01F9C:  MOVWF  x35
01F9E:  MOVLW  65
01FA0:  MOVWF  x36
01FA2:  MOVLW  73
01FA4:  MOVWF  x37
01FA6:  CLRF   x38
01FA8:  MOVLW  4D
01FAA:  MOVWF  x39
01FAC:  MOVLW  69
01FAE:  MOVWF  x3A
01FB0:  MOVLW  65
01FB2:  MOVWF  x3B
01FB4:  MOVLW  72
01FB6:  MOVWF  x3C
01FB8:  MOVLW  63
01FBA:  MOVWF  x3D
01FBC:  MOVLW  6F
01FBE:  MOVWF  x3E
01FC0:  MOVLW  6C
01FC2:  MOVWF  x3F
01FC4:  MOVLW  65
01FC6:  MOVWF  x40
01FC8:  MOVLW  73
01FCA:  MOVWF  x41
01FCC:  CLRF   x42
01FCE:  MOVLW  4A
01FD0:  MOVWF  x43
01FD2:  MOVLW  75
01FD4:  MOVWF  x44
01FD6:  MOVLW  65
01FD8:  MOVWF  x45
01FDA:  MOVLW  76
01FDC:  MOVWF  x46
01FDE:  MOVLW  65
01FE0:  MOVWF  x47
01FE2:  MOVLW  73
01FE4:  MOVWF  x48
01FE6:  CLRF   x49
01FE8:  MOVLW  56
01FEA:  MOVWF  x4A
01FEC:  MOVLW  69
01FEE:  MOVWF  x4B
01FF0:  MOVLW  65
01FF2:  MOVWF  x4C
01FF4:  MOVLW  72
01FF6:  MOVWF  x4D
01FF8:  MOVLW  6E
01FFA:  MOVWF  x4E
01FFC:  MOVLW  65
01FFE:  MOVWF  x4F
02000:  MOVLW  73
02002:  MOVWF  x50
02004:  CLRF   x51
02006:  MOVLW  53
02008:  MOVWF  x52
0200A:  MOVLW  61
0200C:  MOVWF  x53
0200E:  MOVLW  62
02010:  MOVWF  x54
02012:  MOVLW  61
02014:  MOVWF  x55
02016:  MOVLW  64
02018:  MOVWF  x56
0201A:  MOVLW  6F
0201C:  MOVWF  x57
0201E:  CLRF   x58
02020:  MOVLW  4D
02022:  MOVWF  x59
02024:  MOVLW  69
02026:  MOVWF  x5A
02028:  MOVLW  65
0202A:  MOVWF  x5B
0202C:  MOVLW  72
0202E:  MOVWF  x5C
02030:  MOVLW  63
02032:  MOVWF  x5D
02034:  MOVLW  6F
02036:  MOVWF  x5E
02038:  CLRF   x5F
0203A:  MOVLW  56
0203C:  MOVWF  x60
0203E:  MOVLW  69
02040:  MOVWF  x61
02042:  MOVLW  65
02044:  MOVWF  x62
02046:  MOVLW  72
02048:  MOVWF  x63
0204A:  MOVLW  6E
0204C:  MOVWF  x64
0204E:  MOVLW  65
02050:  MOVWF  x65
02052:  CLRF   x66
02054:  MOVLW  44
02056:  MOVWF  x67
02058:  MOVLW  6F
0205A:  MOVWF  x68
0205C:  MOVLW  6D
0205E:  MOVWF  x69
02060:  MOVLW  69
02062:  MOVWF  x6A
02064:  MOVLW  6E
02066:  MOVWF  x6B
02068:  MOVLW  67
0206A:  MOVWF  x6C
0206C:  CLRF   x6D
0206E:  MOVLW  53
02070:  MOVWF  x6E
02072:  MOVLW  69
02074:  MOVWF  x6F
02076:  CLRF   x70
02078:  MOVLW  4E
0207A:  MOVWF  x71
0207C:  MOVLW  6F
0207E:  MOVWF  x72
02080:  CLRF   x73
02082:  MOVLW  48
02084:  MOVWF  x74
02086:  MOVLW  6F
02088:  MOVWF  x75
0208A:  MOVLW  72
0208C:  MOVWF  x76
0208E:  MOVLW  61
02090:  MOVWF  x77
02092:  CLRF   x78
02094:  MOVLW  46
02096:  MOVWF  x79
02098:  MOVLW  65
0209A:  MOVWF  x7A
0209C:  MOVLW  63
0209E:  MOVWF  x7B
020A0:  MOVLW  68
020A2:  MOVWF  x7C
020A4:  MOVLW  61
020A6:  MOVWF  x7D
020A8:  CLRF   x7E
020AA:  MOVLW  53
020AC:  MOVWF  x7F
020AE:  MOVLW  61
020B0:  MOVWF  x80
020B2:  MOVLW  6C
020B4:  MOVWF  x81
020B6:  MOVLW  69
020B8:  MOVWF  x82
020BA:  MOVLW  72
020BC:  MOVWF  x83
020BE:  CLRF   x84
020C0:  MOVLW  41
020C2:  MOVWF  x85
020C4:  MOVLW  4A
020C6:  MOVWF  x86
020C8:  MOVLW  55
020CA:  MOVWF  x87
020CC:  MOVLW  53
020CE:  MOVWF  x88
020D0:  MOVLW  54
020D2:  MOVWF  x89
020D4:  MOVLW  45
020D6:  MOVWF  x8A
020D8:  MOVLW  20
020DA:  MOVWF  x8B
020DC:  MOVLW  44
020DE:  MOVWF  x8C
020E0:  MOVLW  45
020E2:  MOVWF  x8D
020E4:  MOVLW  20
020E6:  MOVWF  x8E
020E8:  MOVLW  48
020EA:  MOVWF  x8F
020EC:  MOVLW  4F
020EE:  MOVWF  x90
020F0:  MOVLW  52
020F2:  MOVWF  x91
020F4:  MOVLW  41
020F6:  MOVWF  x92
020F8:  CLRF   x93
020FA:  MOVWF  x94
020FC:  MOVLW  4A
020FE:  MOVWF  x95
02100:  MOVLW  55
02102:  MOVWF  x96
02104:  MOVLW  53
02106:  MOVWF  x97
02108:  MOVLW  54
0210A:  MOVWF  x98
0210C:  MOVLW  45
0210E:  MOVWF  x99
02110:  MOVLW  20
02112:  MOVWF  x9A
02114:  MOVLW  44
02116:  MOVWF  x9B
02118:  MOVLW  45
0211A:  MOVWF  x9C
0211C:  MOVLW  20
0211E:  MOVWF  x9D
02120:  MOVLW  46
02122:  MOVWF  x9E
02124:  MOVLW  45
02126:  MOVWF  x9F
02128:  MOVLW  43
0212A:  MOVWF  xA0
0212C:  MOVLW  48
0212E:  MOVWF  xA1
02130:  MOVLW  41
02132:  MOVWF  xA2
02134:  CLRF   xA3
02136:  MOVLW  45
02138:  MOVWF  xA4
0213A:  MOVLW  73
0213C:  MOVWF  xA5
0213E:  MOVLW  74
02140:  MOVWF  xA6
02142:  MOVLW  61
02144:  MOVWF  xA7
02146:  MOVLW  62
02148:  MOVWF  xA8
0214A:  MOVLW  6C
0214C:  MOVWF  xA9
0214E:  MOVLW  65
02150:  MOVWF  xAA
02152:  MOVLW  63
02154:  MOVWF  xAB
02156:  MOVLW  65
02158:  MOVWF  xAC
0215A:  MOVLW  72
0215C:  MOVWF  xAD
0215E:  CLRF   xAE
02160:  MOVLW  41
02162:  MOVWF  xAF
02164:  MOVLW  4D
02166:  MOVWF  xB0
02168:  CLRF   xB1
0216A:  MOVLW  50
0216C:  MOVWF  xB2
0216E:  MOVLW  4D
02170:  MOVWF  xB3
02172:  CLRF   xB4
02174:  MOVLW  68
02176:  MOVWF  xB5
02178:  CLRF   xB6
0217A:  MOVLW  6D
0217C:  MOVWF  xB7
0217E:  CLRF   xB8
02180:  MOVLW  44
02182:  MOVWF  xB9
02184:  MOVLW  61
02186:  MOVWF  xBA
02188:  MOVLW  74
0218A:  MOVWF  xBB
0218C:  MOVLW  6F
0218E:  MOVWF  xBC
02190:  MOVLW  73
02192:  MOVWF  xBD
02194:  CLRF   xBE
02196:  MOVLW  47
02198:  MOVWF  xBF
0219A:  MOVLW  75
0219C:  MOVWF  xC0
0219E:  MOVLW  61
021A0:  MOVWF  xC1
021A2:  MOVLW  72
021A4:  MOVWF  xC2
021A6:  MOVLW  64
021A8:  MOVWF  xC3
021AA:  MOVLW  61
021AC:  MOVWF  xC4
021AE:  MOVLW  64
021B0:  MOVWF  xC5
021B2:  MOVLW  6F
021B4:  MOVWF  xC6
021B6:  MOVLW  73
021B8:  MOVWF  xC7
021BA:  MOVLW  21
021BC:  MOVWF  xC8
021BE:  CLRF   xC9
021C0:  MOVLW  54
021C2:  MOVWF  xCA
021C4:  MOVLW  45
021C6:  MOVWF  xCB
021C8:  MOVLW  4D
021CA:  MOVWF  xCC
021CC:  MOVLW  50
021CE:  MOVWF  xCD
021D0:  MOVLW  20
021D2:  MOVWF  xCE
021D4:  MOVLW  41
021D6:  MOVWF  xCF
021D8:  MOVLW  43
021DA:  MOVWF  xD0
021DC:  MOVLW  54
021DE:  MOVWF  xD1
021E0:  MOVLW  55
021E2:  MOVWF  xD2
021E4:  MOVLW  41
021E6:  MOVWF  xD3
021E8:  MOVLW  4C
021EA:  MOVWF  xD4
021EC:  CLRF   xD5
021EE:  MOVLW  4D
021F0:  MOVWF  xD6
021F2:  MOVLW  69
021F4:  MOVWF  xD7
021F6:  MOVLW  6E
021F8:  MOVWF  xD8
021FA:  CLRF   xD9
021FC:  MOVLW  4D
021FE:  MOVWF  xDA
02200:  MOVLW  61
02202:  MOVWF  xDB
02204:  MOVLW  78
02206:  MOVWF  xDC
02208:  CLRF   xDD
0220A:  MOVLW  54
0220C:  MOVWF  xDE
0220E:  MOVLW  65
02210:  MOVWF  xDF
02212:  MOVLW  6D
02214:  MOVWF  xE0
02216:  MOVLW  70
02218:  MOVWF  xE1
0221A:  MOVLW  20
0221C:  MOVWF  xE2
0221E:  MOVLW  4D
02220:  MOVWF  xE3
02222:  MOVLW  69
02224:  MOVWF  xE4
02226:  MOVLW  6E
02228:  MOVWF  xE5
0222A:  MOVLW  69
0222C:  MOVWF  xE6
0222E:  MOVLW  6D
02230:  MOVWF  xE7
02232:  MOVLW  61
02234:  MOVWF  xE8
02236:  CLRF   xE9
02238:  MOVLW  54
0223A:  MOVWF  xEA
0223C:  MOVLW  65
0223E:  MOVWF  xEB
02240:  MOVLW  6D
02242:  MOVWF  xEC
02244:  MOVLW  70
02246:  MOVWF  xED
02248:  MOVLW  20
0224A:  MOVWF  xEE
0224C:  MOVLW  4D
0224E:  MOVWF  xEF
02250:  MOVLW  61
02252:  MOVWF  xF0
02254:  MOVLW  78
02256:  MOVWF  xF1
02258:  MOVLW  69
0225A:  MOVWF  xF2
0225C:  MOVLW  6D
0225E:  MOVWF  xF3
02260:  MOVLW  61
02262:  MOVWF  xF4
02264:  CLRF   xF5
02266:  MOVLW  4E
02268:  MOVWF  xF6
0226A:  MOVLW  65
0226C:  MOVWF  xF7
0226E:  MOVLW  62
02270:  MOVWF  xF8
02272:  MOVLW  75
02274:  MOVWF  xF9
02276:  MOVLW  6C
02278:  MOVWF  xFA
0227A:  MOVLW  69
0227C:  MOVWF  xFB
0227E:  MOVLW  7A
02280:  MOVWF  xFC
02282:  MOVLW  61
02284:  MOVWF  xFD
02286:  MOVLW  63
02288:  MOVWF  xFE
0228A:  MOVLW  69
0228C:  MOVWF  xFF
0228E:  MOVLW  6F
02290:  MOVLB  2
02292:  MOVWF  x00
02294:  MOVLW  6E
02296:  MOVWF  x01
02298:  CLRF   x02
0229A:  MOVLW  47
0229C:  MOVWF  x03
0229E:  MOVLW  6F
022A0:  MOVWF  x04
022A2:  MOVLW  74
022A4:  MOVWF  x05
022A6:  MOVLW  65
022A8:  MOVWF  x06
022AA:  MOVLW  6F
022AC:  MOVWF  x07
022AE:  CLRF   x08
022B0:  MOVLW  43
022B2:  MOVWF  x09
022B4:  MOVLW  6F
022B6:  MOVWF  x0A
022B8:  MOVLW  6E
022BA:  MOVWF  x0B
022BC:  MOVLW  66
022BE:  MOVWF  x0C
022C0:  MOVLW  69
022C2:  MOVWF  x0D
022C4:  MOVLW  67
022C6:  MOVWF  x0E
022C8:  MOVLW  75
022CA:  MOVWF  x0F
022CC:  MOVLW  72
022CE:  MOVWF  x10
022D0:  MOVLW  61
022D2:  MOVWF  x11
022D4:  MOVLW  72
022D6:  MOVWF  x12
022D8:  MOVLW  20
022DA:  MOVWF  x13
022DC:  MOVLW  52
022DE:  MOVWF  x14
022E0:  MOVLW  69
022E2:  MOVWF  x15
022E4:  MOVLW  65
022E6:  MOVWF  x16
022E8:  MOVLW  67
022EA:  MOVWF  x17
022EC:  MOVLW  6F
022EE:  MOVWF  x18
022F0:  CLRF   x19
022F2:  MOVLW  53
022F4:  MOVWF  x1A
022F6:  MOVLW  65
022F8:  MOVWF  x1B
022FA:  MOVLW  6E
022FC:  MOVWF  x1C
022FE:  MOVLW  73
02300:  MOVWF  x1D
02302:  MOVLW  61
02304:  MOVWF  x1E
02306:  MOVLW  64
02308:  MOVWF  x1F
0230A:  MOVLW  6F
0230C:  MOVWF  x20
0230E:  CLRF   x21
02310:  MOVLW  54
02312:  MOVWF  x22
02314:  MOVLW  65
02316:  MOVWF  x23
02318:  MOVLW  6D
0231A:  MOVWF  x24
0231C:  MOVLW  70
0231E:  MOVWF  x25
02320:  MOVLW  6F
02322:  MOVWF  x26
02324:  MOVLW  72
02326:  MOVWF  x27
02328:  MOVLW  69
0232A:  MOVWF  x28
0232C:  MOVLW  7A
0232E:  MOVWF  x29
02330:  MOVLW  61
02332:  MOVWF  x2A
02334:  MOVLW  64
02336:  MOVWF  x2B
02338:  MOVLW  6F
0233A:  MOVWF  x2C
0233C:  CLRF   x2D
0233E:  MOVLW  54
02340:  MOVWF  x2E
02342:  MOVLW  69
02344:  MOVWF  x2F
02346:  MOVLW  65
02348:  MOVWF  x30
0234A:  MOVLW  6D
0234C:  MOVWF  x31
0234E:  MOVLW  70
02350:  MOVWF  x32
02352:  MOVLW  6F
02354:  MOVWF  x33
02356:  MOVLW  20
02358:  MOVWF  x34
0235A:  MOVLW  64
0235C:  MOVWF  x35
0235E:  MOVLW  65
02360:  MOVWF  x36
02362:  MOVLW  20
02364:  MOVWF  x37
02366:  MOVLW  52
02368:  MOVWF  x38
0236A:  MOVLW  65
0236C:  MOVWF  x39
0236E:  MOVLW  70
02370:  MOVWF  x3A
02372:  MOVLW  6F
02374:  MOVWF  x3B
02376:  MOVLW  73
02378:  MOVWF  x3C
0237A:  MOVLW  6F
0237C:  MOVWF  x3D
0237E:  CLRF   x3E
02380:  MOVLW  54
02382:  MOVWF  x3F
02384:  MOVLW  69
02386:  MOVWF  x40
02388:  MOVLW  65
0238A:  MOVWF  x41
0238C:  MOVLW  6D
0238E:  MOVWF  x42
02390:  MOVLW  70
02392:  MOVWF  x43
02394:  MOVLW  6F
02396:  MOVWF  x44
02398:  MOVLW  20
0239A:  MOVWF  x45
0239C:  MOVLW  64
0239E:  MOVWF  x46
023A0:  MOVLW  65
023A2:  MOVWF  x47
023A4:  MOVLW  20
023A6:  MOVWF  x48
023A8:  MOVLW  52
023AA:  MOVWF  x49
023AC:  MOVLW  69
023AE:  MOVWF  x4A
023B0:  MOVLW  65
023B2:  MOVWF  x4B
023B4:  MOVLW  67
023B6:  MOVWF  x4C
023B8:  MOVLW  6F
023BA:  MOVWF  x4D
023BC:  CLRF   x4E
023BE:  MOVLW  4E
023C0:  MOVWF  x4F
023C2:  MOVLW  75
023C4:  MOVWF  x50
023C6:  MOVLW  6D
023C8:  MOVWF  x51
023CA:  MOVLW  65
023CC:  MOVWF  x52
023CE:  MOVLW  72
023D0:  MOVWF  x53
023D2:  MOVLW  6F
023D4:  MOVWF  x54
023D6:  MOVLW  20
023D8:  MOVWF  x55
023DA:  MOVLW  64
023DC:  MOVWF  x56
023DE:  MOVLW  65
023E0:  MOVWF  x57
023E2:  MOVLW  20
023E4:  MOVWF  x58
023E6:  MOVLW  43
023E8:  MOVWF  x59
023EA:  MOVLW  69
023EC:  MOVWF  x5A
023EE:  MOVLW  63
023F0:  MOVWF  x5B
023F2:  MOVLW  6C
023F4:  MOVWF  x5C
023F6:  MOVLW  6F
023F8:  MOVWF  x5D
023FA:  MOVLW  73
023FC:  MOVWF  x5E
023FE:  CLRF   x5F
02400:  MOVLW  43
02402:  MOVWF  x60
02404:  MOVLW  69
02406:  MOVWF  x61
02408:  MOVLW  63
0240A:  MOVWF  x62
0240C:  MOVLW  6C
0240E:  MOVWF  x63
02410:  MOVLW  6F
02412:  MOVWF  x64
02414:  MOVLW  73
02416:  MOVWF  x65
02418:  CLRF   x66
0241A:  MOVLW  44
0241C:  MOVWF  x67
0241E:  MOVLW  69
02420:  MOVWF  x68
02422:  MOVLW  61
02424:  MOVWF  x69
02426:  MOVLW  73
02428:  MOVWF  x6A
0242A:  MOVLW  20
0242C:  MOVWF  x6B
0242E:  MOVLW  64
02430:  MOVWF  x6C
02432:  MOVLW  65
02434:  MOVWF  x6D
02436:  MOVLW  20
02438:  MOVWF  x6E
0243A:  MOVLW  54
0243C:  MOVWF  x6F
0243E:  MOVLW  72
02440:  MOVWF  x70
02442:  MOVLW  61
02444:  MOVWF  x71
02446:  MOVLW  62
02448:  MOVWF  x72
0244A:  MOVLW  61
0244C:  MOVWF  x73
0244E:  MOVLW  6A
02450:  MOVWF  x74
02452:  MOVLW  6F
02454:  MOVWF  x75
02456:  CLRF   x76
02458:  CLRF   x77
0245A:  CLRF   x78
....................  
....................    setup_adc_ports(AN0|VSS_VDD); 
0245C:  MOVF   FC1,W
0245E:  ANDLW  C0
02460:  IORLW  0E
02462:  MOVWF  FC1
....................    setup_adc(ADC_CLOCK_DIV_2|ADC_TAD_MUL_0); 
02464:  MOVF   FC0,W
02466:  ANDLW  C0
02468:  MOVWF  FC0
0246A:  BCF    FC0.7
0246C:  BSF    FC2.0
....................    setup_psp(PSP_DISABLED); 
0246E:  BCF    F96.4
....................    setup_wdt(WDT_OFF); 
02470:  BCF    FD1.0
....................    setup_timer_0(RTCC_INTERNAL); 
02472:  MOVLW  80
02474:  MOVWF  FD5
....................    setup_timer_1(T1_DISABLED); 
02476:  CLRF   FCD
....................    setup_timer_2(T2_DISABLED,0,1); 
02478:  MOVLW  00
0247A:  MOVWF  FCA
0247C:  MOVLW  00
0247E:  MOVWF  FCB
....................    setup_timer_3(T3_DISABLED|T3_DIV_BY_1); 
02480:  CLRF   FB1
....................    setup_comparator(NC_NC_NC_NC); 
02482:  MOVLW  07
02484:  MOVWF  FB4
02486:  MOVF   F95,W
02488:  MOVWF  F95
0248A:  MOVF   F96,W
0248C:  MOVWF  F96
0248E:  MOVLW  06
02490:  MOVWF  00
02492:  DECFSZ 00,F
02494:  BRA    2492
02496:  NOP   
02498:  MOVF   FB4,W
0249A:  BCF    FA1.6
....................    setup_vref(FALSE); 
0249C:  CLRF   FB5
....................    setup_oscillator(OSC_8MHZ|OSC_TIMER1|OSC_31250|OSC_PLL_OFF); 
0249E:  MOVLW  71
024A0:  MOVWF  FD3
024A2:  MOVLW  80
024A4:  MOVWF  F9B
024A6:  MOVF   FD3,W
....................  
....................    // TODO: USER CODE!! 
....................     
....................    int8 xa=24,ya=32; 
024A8:  MOVLW  18
024AA:  MOVWF  x79
024AC:  MOVLW  20
024AE:  MOVWF  x7A
....................  
....................  
....................    glcd_init(ON);       // Inicializacin de GLCD 
024B0:  MOVLW  01
024B2:  MOVWF  x7B
024B4:  MOVLB  0
024B6:  GOTO   0AF0
....................    glcd_fillScreen(0); //LIMPIAMOS LA PANTALLA  
024BA:  MOVLB  2
024BC:  CLRF   x7C
024BE:  MOVLB  0
024C0:  CALL   0A62
....................    glcd_portada(); 
024C4:  GOTO   0CDA
....................    delay_ms(1000); 
024C8:  MOVLW  04
024CA:  MOVLB  2
024CC:  MOVWF  x7B
024CE:  MOVLW  FA
024D0:  MOVWF  x84
024D2:  MOVLB  0
024D4:  CALL   0D82
024D8:  MOVLB  2
024DA:  DECFSZ x7B,F
024DC:  BRA    24CE
....................    
.................... INICIO: 
....................    glcd_fillScreen(0); //============== 
024DE:  CLRF   x7C
024E0:  MOVLB  0
024E2:  CALL   0A62
....................  
....................   // ds1307_init(); 
....................    glcd_rect(0,0,127,63,NO,ON); 
024E6:  MOVLB  2
024E8:  CLRF   x7B
024EA:  CLRF   x7C
024EC:  MOVLW  7F
024EE:  MOVWF  x7D
024F0:  MOVLW  3F
024F2:  MOVWF  x7E
024F4:  CLRF   x7F
024F6:  MOVLW  01
024F8:  MOVWF  x80
024FA:  MOVLB  0
024FC:  CALL   0EE8
....................    glcd_rect(1,1,126,62,NO,ON); 
02500:  MOVLW  01
02502:  MOVLB  2
02504:  MOVWF  x7B
02506:  MOVWF  x7C
02508:  MOVLW  7E
0250A:  MOVWF  x7D
0250C:  MOVLW  3E
0250E:  MOVWF  x7E
02510:  CLRF   x7F
02512:  MOVLW  01
02514:  MOVWF  x80
02516:  MOVLB  0
02518:  CALL   0EE8
....................    glcd_text57(5,5,MENSAJE1, 1, 1); 
0251C:  MOVLW  05
0251E:  MOVLB  2
02520:  MOVWF  x7B
02522:  MOVWF  x7C
02524:  CLRF   x7E
02526:  MOVLW  A6
02528:  MOVWF  x7D
0252A:  MOVLW  01
0252C:  MOVWF  x7F
0252E:  MOVWF  x80
02530:  MOVLB  0
02532:  CALL   0FAA
....................    glcd_text57(8,20,SETTIME, 1, 1); 
02536:  MOVLW  08
02538:  MOVLB  2
0253A:  MOVWF  x7B
0253C:  MOVLW  14
0253E:  MOVWF  x7C
02540:  CLRF   x7E
02542:  MOVLW  BA
02544:  MOVWF  x7D
02546:  MOVLW  01
02548:  MOVWF  x7F
0254A:  MOVWF  x80
0254C:  MOVLB  0
0254E:  CALL   0FAA
....................    glcd_rect(5,37,61,58,YES,ON); 
02552:  MOVLW  05
02554:  MOVLB  2
02556:  MOVWF  x7B
02558:  MOVLW  25
0255A:  MOVWF  x7C
0255C:  MOVLW  3D
0255E:  MOVWF  x7D
02560:  MOVLW  3A
02562:  MOVWF  x7E
02564:  MOVLW  01
02566:  MOVWF  x7F
02568:  MOVWF  x80
0256A:  MOVLB  0
0256C:  CALL   0EE8
....................    glcd_rect(65,37,120,58,YES,ON); 
02570:  MOVLW  41
02572:  MOVLB  2
02574:  MOVWF  x7B
02576:  MOVLW  25
02578:  MOVWF  x7C
0257A:  MOVLW  78
0257C:  MOVWF  x7D
0257E:  MOVLW  3A
02580:  MOVWF  x7E
02582:  MOVLW  01
02584:  MOVWF  x7F
02586:  MOVWF  x80
02588:  MOVLB  0
0258A:  CALL   0EE8
....................    glcd_text57(28,44,SI, 1, 0); 
0258E:  MOVLW  1C
02590:  MOVLB  2
02592:  MOVWF  x7B
02594:  MOVLW  2C
02596:  MOVWF  x7C
02598:  MOVLW  01
0259A:  MOVWF  x7E
0259C:  MOVLW  6E
0259E:  MOVWF  x7D
025A0:  MOVLW  01
025A2:  MOVWF  x7F
025A4:  CLRF   x80
025A6:  MOVLB  0
025A8:  CALL   0FAA
....................    glcd_text57(86,44,NOO, 1, 0); 
025AC:  MOVLW  56
025AE:  MOVLB  2
025B0:  MOVWF  x7B
025B2:  MOVLW  2C
025B4:  MOVWF  x7C
025B6:  MOVLW  01
025B8:  MOVWF  x7E
025BA:  MOVLW  71
025BC:  MOVWF  x7D
025BE:  MOVLW  01
025C0:  MOVWF  x7F
025C2:  CLRF   x80
025C4:  MOVLB  0
025C6:  CALL   0FAA
....................     
....................    glcd_rect(6,38,60,57,NO,OFF);//dibuja selector 
025CA:  MOVLW  06
025CC:  MOVLB  2
025CE:  MOVWF  x7B
025D0:  MOVLW  26
025D2:  MOVWF  x7C
025D4:  MOVLW  3C
025D6:  MOVWF  x7D
025D8:  MOVLW  39
025DA:  MOVWF  x7E
025DC:  CLRF   x7F
025DE:  CLRF   x80
025E0:  MOVLB  0
025E2:  CALL   0EE8
....................        
....................    set_adc_channel(0); // lectura del teclado puerto analogo  
025E6:  MOVLW  00
025E8:  MOVWF  01
025EA:  MOVF   FC2,W
025EC:  ANDLW  C3
025EE:  IORWF  01,W
025F0:  MOVWF  FC2
....................    delay_us(20); 
025F2:  MOVLW  0D
025F4:  MOVWF  00
025F6:  DECFSZ 00,F
025F8:  BRA    25F6
....................     
....................  
....................     
....................    START1: 
....................     
....................    s = read_adc(); 
025FA:  BSF    FC2.1
025FC:  BTFSC  FC2.1
025FE:  BRA    25FC
02600:  MOVFF  FC4,04
....................    delay_ms(100); //*************************** 
02604:  MOVLW  64
02606:  MOVLB  2
02608:  MOVWF  x84
0260A:  MOVLB  0
0260C:  CALL   0D82
....................     
....................    while(s > 240){ 
02610:  MOVF   04,W
02612:  SUBLW  F0
02614:  BC    262E
....................     s = read_adc(); 
02616:  BSF    FC2.1
02618:  BTFSC  FC2.1
0261A:  BRA    2618
0261C:  MOVFF  FC4,04
....................     delay_ms(50); 
02620:  MOVLW  32
02622:  MOVLB  2
02624:  MOVWF  x84
02626:  MOVLB  0
02628:  CALL   0D82
....................    } 
0262C:  BRA    2610
....................    if(s > 195 && s < 225) //enter 
0262E:  MOVF   04,W
02630:  SUBLW  C3
02632:  BC    263E
02634:  MOVF   04,W
02636:  SUBLW  E0
02638:  BNC   263E
....................        goto MENU; //entra a la configuracion de hora/temperatura/riego  
0263A:  BRA    2730
....................        
....................    else if (s > 165 &&  s < 185){  // pulsa la tecla derecha  
0263C:  BRA    272E
0263E:  MOVF   04,W
02640:  SUBLW  A5
02642:  BTFSC  FD8.0
02644:  BRA    272E
02646:  MOVF   04,W
02648:  SUBLW  B8
0264A:  BTFSS  FD8.0
0264C:  BRA    272E
....................        
....................        glcd_rect(6,38,60,57,NO,ON); 
0264E:  MOVLW  06
02650:  MOVLB  2
02652:  MOVWF  x7B
02654:  MOVLW  26
02656:  MOVWF  x7C
02658:  MOVLW  3C
0265A:  MOVWF  x7D
0265C:  MOVLW  39
0265E:  MOVWF  x7E
02660:  CLRF   x7F
02662:  MOVLW  01
02664:  MOVWF  x80
02666:  MOVLB  0
02668:  CALL   0EE8
....................        glcd_rect(66,38,119,57,NO,OFF); 
0266C:  MOVLW  42
0266E:  MOVLB  2
02670:  MOVWF  x7B
02672:  MOVLW  26
02674:  MOVWF  x7C
02676:  MOVLW  77
02678:  MOVWF  x7D
0267A:  MOVLW  39
0267C:  MOVWF  x7E
0267E:  CLRF   x7F
02680:  CLRF   x80
02682:  MOVLB  0
02684:  CALL   0EE8
....................        delay_ms(100); 
02688:  MOVLW  64
0268A:  MOVLB  2
0268C:  MOVWF  x84
0268E:  MOVLB  0
02690:  CALL   0D82
....................        s = read_adc(); 
02694:  BSF    FC2.1
02696:  BTFSC  FC2.1
02698:  BRA    2696
0269A:  MOVFF  FC4,04
....................        delay_us(40); 
0269E:  MOVLW  1A
026A0:  MOVWF  00
026A2:  DECFSZ 00,F
026A4:  BRA    26A2
026A6:  NOP   
....................           while(s > 240){  // ha espera del nuevo enter  
026A8:  MOVF   04,W
026AA:  SUBLW  F0
026AC:  BC    26C6
....................             s = read_adc(); 
026AE:  BSF    FC2.1
026B0:  BTFSC  FC2.1
026B2:  BRA    26B0
026B4:  MOVFF  FC4,04
....................             delay_ms(50);//************************* 
026B8:  MOVLW  32
026BA:  MOVLB  2
026BC:  MOVWF  x84
026BE:  MOVLB  0
026C0:  CALL   0D82
....................             } 
026C4:  BRA    26A8
....................                if(s > 195 && s < 225) 
026C6:  MOVF   04,W
026C8:  SUBLW  C3
026CA:  BC    26D6
026CC:  MOVF   04,W
026CE:  SUBLW  E0
026D0:  BNC   26D6
....................            goto SISTEMA; //enter cuando no se elige configurar el sistema  
026D2:  GOTO   67EE
....................     if(s > 115 && s < 135){// pulsa la tecla izquierda 
026D6:  MOVF   04,W
026D8:  SUBLW  73
026DA:  BC    272C
026DC:  MOVF   04,W
026DE:  SUBLW  86
026E0:  BNC   272C
....................            glcd_rect(66,38,119,57,NO,ON); 
026E2:  MOVLW  42
026E4:  MOVLB  2
026E6:  MOVWF  x7B
026E8:  MOVLW  26
026EA:  MOVWF  x7C
026EC:  MOVLW  77
026EE:  MOVWF  x7D
026F0:  MOVLW  39
026F2:  MOVWF  x7E
026F4:  CLRF   x7F
026F6:  MOVLW  01
026F8:  MOVWF  x80
026FA:  MOVLB  0
026FC:  CALL   0EE8
....................            glcd_rect(6,38,60,57,NO,OFF); 
02700:  MOVLW  06
02702:  MOVLB  2
02704:  MOVWF  x7B
02706:  MOVLW  26
02708:  MOVWF  x7C
0270A:  MOVLW  3C
0270C:  MOVWF  x7D
0270E:  MOVLW  39
02710:  MOVWF  x7E
02712:  CLRF   x7F
02714:  CLRF   x80
02716:  MOVLB  0
02718:  CALL   0EE8
....................            delay_ms(50); 
0271C:  MOVLW  32
0271E:  MOVLB  2
02720:  MOVWF  x84
02722:  MOVLB  0
02724:  CALL   0D82
....................            goto START1; 
02728:  BRA    25FA
....................        }    
....................        else  
0272A:  BRA    272E
....................            goto START1; 
0272C:  BRA    25FA
....................    }goto START1; 
0272E:  BRA    25FA
....................    
....................  
....................     
....................  
....................     
....................   MENU: 
....................    glcd_fillScreen(0); 
02730:  MOVLB  2
02732:  CLRF   x7C
02734:  MOVLB  0
02736:  CALL   0A62
....................    glcd_rect(0,0,127,63,NO,ON); 
0273A:  MOVLB  2
0273C:  CLRF   x7B
0273E:  CLRF   x7C
02740:  MOVLW  7F
02742:  MOVWF  x7D
02744:  MOVLW  3F
02746:  MOVWF  x7E
02748:  CLRF   x7F
0274A:  MOVLW  01
0274C:  MOVWF  x80
0274E:  MOVLB  0
02750:  CALL   0EE8
....................    glcd_rect(1,1,126,62,NO,ON); 
02754:  MOVLW  01
02756:  MOVLB  2
02758:  MOVWF  x7B
0275A:  MOVWF  x7C
0275C:  MOVLW  7E
0275E:  MOVWF  x7D
02760:  MOVLW  3E
02762:  MOVWF  x7E
02764:  CLRF   x7F
02766:  MOVLW  01
02768:  MOVWF  x80
0276A:  MOVLB  0
0276C:  CALL   0EE8
....................    glcd_rect(5,5,122,22,YES,ON); 
02770:  MOVLW  05
02772:  MOVLB  2
02774:  MOVWF  x7B
02776:  MOVWF  x7C
02778:  MOVLW  7A
0277A:  MOVWF  x7D
0277C:  MOVLW  16
0277E:  MOVWF  x7E
02780:  MOVLW  01
02782:  MOVWF  x7F
02784:  MOVWF  x80
02786:  MOVLB  0
02788:  CALL   0EE8
....................    glcd_text57(10,10,HORA, 1, 0); 
0278C:  MOVLW  0A
0278E:  MOVLB  2
02790:  MOVWF  x7B
02792:  MOVWF  x7C
02794:  CLRF   x7E
02796:  MOVLW  E1
02798:  MOVWF  x7D
0279A:  MOVLW  01
0279C:  MOVWF  x7F
0279E:  CLRF   x80
027A0:  MOVLB  0
027A2:  CALL   0FAA
....................    glcd_rect(5,25,122,39,YES,ON); 
027A6:  MOVLW  05
027A8:  MOVLB  2
027AA:  MOVWF  x7B
027AC:  MOVLW  19
027AE:  MOVWF  x7C
027B0:  MOVLW  7A
027B2:  MOVWF  x7D
027B4:  MOVLW  27
027B6:  MOVWF  x7E
027B8:  MOVLW  01
027BA:  MOVWF  x7F
027BC:  MOVWF  x80
027BE:  MOVLB  0
027C0:  CALL   0EE8
....................    glcd_text57(10,30,TEMPERATURA, 1, 0); 
027C4:  MOVLW  0A
027C6:  MOVLB  2
027C8:  MOVWF  x7B
027CA:  MOVLW  1E
027CC:  MOVWF  x7C
027CE:  CLRF   x7E
027D0:  MOVLW  F3
027D2:  MOVWF  x7D
027D4:  MOVLW  01
027D6:  MOVWF  x7F
027D8:  CLRF   x80
027DA:  MOVLB  0
027DC:  CALL   0FAA
....................    glcd_rect(5,42,122,56,YES,ON); 
027E0:  MOVLW  05
027E2:  MOVLB  2
027E4:  MOVWF  x7B
027E6:  MOVLW  2A
027E8:  MOVWF  x7C
027EA:  MOVLW  7A
027EC:  MOVWF  x7D
027EE:  MOVLW  38
027F0:  MOVWF  x7E
027F2:  MOVLW  01
027F4:  MOVWF  x7F
027F6:  MOVWF  x80
027F8:  MOVLB  0
027FA:  CALL   0EE8
....................    glcd_text57(10,47,RIEGO, 1, 0); 
027FE:  MOVLW  0A
02800:  MOVLB  2
02802:  MOVWF  x7B
02804:  MOVLW  2F
02806:  MOVWF  x7C
02808:  MOVLW  01
0280A:  MOVWF  x7E
0280C:  MOVLW  04
0280E:  MOVWF  x7D
02810:  MOVLW  01
02812:  MOVWF  x7F
02814:  CLRF   x80
02816:  MOVLB  0
02818:  CALL   0FAA
....................     
....................    glcd_rect(6,6,121,21,NO,OFF); // rectangulo selector  
0281C:  MOVLW  06
0281E:  MOVLB  2
02820:  MOVWF  x7B
02822:  MOVWF  x7C
02824:  MOVLW  79
02826:  MOVWF  x7D
02828:  MOVLW  15
0282A:  MOVWF  x7E
0282C:  CLRF   x7F
0282E:  CLRF   x80
02830:  MOVLB  0
02832:  CALL   0EE8
....................   
....................  CUADRO_MENU: 
....................   
....................     s = read_adc(); 
02836:  BSF    FC2.1
02838:  BTFSC  FC2.1
0283A:  BRA    2838
0283C:  MOVFF  FC4,04
....................     delay_ms(100); //*************************** 
02840:  MOVLW  64
02842:  MOVLB  2
02844:  MOVWF  x84
02846:  MOVLB  0
02848:  CALL   0D82
....................     
....................    while(s > 240){ 
0284C:  MOVF   04,W
0284E:  SUBLW  F0
02850:  BC    286A
....................     s = read_adc(); 
02852:  BSF    FC2.1
02854:  BTFSC  FC2.1
02856:  BRA    2854
02858:  MOVFF  FC4,04
....................     delay_ms(50); 
0285C:  MOVLW  32
0285E:  MOVLB  2
02860:  MOVWF  x84
02862:  MOVLB  0
02864:  CALL   0D82
....................    } 
02868:  BRA    284C
....................     if(s > 195 && s < 225) //enter 
0286A:  MOVF   04,W
0286C:  SUBLW  C3
0286E:  BC    287A
02870:  MOVF   04,W
02872:  SUBLW  E0
02874:  BNC   287A
....................        goto CONF_RTC; 
02876:  BRA    2A92
....................     else if(s > 60 && s < 90){  // pulsa tecla abajo 
02878:  BRA    28FC
0287A:  MOVF   04,W
0287C:  SUBLW  3C
0287E:  BC    28FC
02880:  MOVF   04,W
02882:  SUBLW  59
02884:  BNC   28FC
....................            
....................            glcd_rect(6,6,121,21,NO,ON); //apga el recuadro de la casilla anterior 
02886:  MOVLW  06
02888:  MOVLB  2
0288A:  MOVWF  x7B
0288C:  MOVWF  x7C
0288E:  MOVLW  79
02890:  MOVWF  x7D
02892:  MOVLW  15
02894:  MOVWF  x7E
02896:  CLRF   x7F
02898:  MOVLW  01
0289A:  MOVWF  x80
0289C:  MOVLB  0
0289E:  CALL   0EE8
....................            glcd_rect(6,26,121,38,NO,OFF);//enciende el proximo recuadro  
028A2:  MOVLW  06
028A4:  MOVLB  2
028A6:  MOVWF  x7B
028A8:  MOVLW  1A
028AA:  MOVWF  x7C
028AC:  MOVLW  79
028AE:  MOVWF  x7D
028B0:  MOVLW  26
028B2:  MOVWF  x7E
028B4:  CLRF   x7F
028B6:  CLRF   x80
028B8:  MOVLB  0
028BA:  CALL   0EE8
....................            delay_ms(100); 
028BE:  MOVLW  64
028C0:  MOVLB  2
028C2:  MOVWF  x84
028C4:  MOVLB  0
028C6:  CALL   0D82
....................            s = read_adc(); 
028CA:  BSF    FC2.1
028CC:  BTFSC  FC2.1
028CE:  BRA    28CC
028D0:  MOVFF  FC4,04
....................            delay_us(40); 
028D4:  MOVLW  1A
028D6:  MOVWF  00
028D8:  DECFSZ 00,F
028DA:  BRA    28D8
028DC:  NOP   
....................            
....................           while(s > 240){  // ha espera del nuevo enter  
028DE:  MOVF   04,W
028E0:  SUBLW  F0
028E2:  BC    28FC
....................             s = read_adc(); 
028E4:  BSF    FC2.1
028E6:  BTFSC  FC2.1
028E8:  BRA    28E6
028EA:  MOVFF  FC4,04
....................             delay_ms(50);//************************* 
028EE:  MOVLW  32
028F0:  MOVLB  2
028F2:  MOVWF  x84
028F4:  MOVLB  0
028F6:  CALL   0D82
....................           } 
028FA:  BRA    28DE
....................      
....................     } 
....................     if((s > 195 && s < 225)) 
028FC:  MOVF   04,W
028FE:  SUBLW  C3
02900:  BC    290E
02902:  MOVF   04,W
02904:  SUBLW  E0
02906:  BNC   290E
....................            goto CONF_TEMP;  
02908:  GOTO   402A
....................  
....................      else   if(s > 60 && s < 90){ // presiona tecla abajo 
0290C:  BRA    2920
0290E:  MOVF   04,W
02910:  SUBLW  3C
02912:  BC    291E
02914:  MOVF   04,W
02916:  SUBLW  59
02918:  BNC   291E
....................                goto segunda_abajo;       
0291A:  BRA    2920
....................  
....................         } 
....................      else  goto  CUADRO_MENU;      
0291C:  BRA    2920
0291E:  BRA    2836
....................     
....................            
....................      
....................   segunda_abajo: 
....................    
....................            
....................            glcd_rect(6,26,121,38,NO,ON); 
02920:  MOVLW  06
02922:  MOVLB  2
02924:  MOVWF  x7B
02926:  MOVLW  1A
02928:  MOVWF  x7C
0292A:  MOVLW  79
0292C:  MOVWF  x7D
0292E:  MOVLW  26
02930:  MOVWF  x7E
02932:  CLRF   x7F
02934:  MOVLW  01
02936:  MOVWF  x80
02938:  MOVLB  0
0293A:  CALL   0EE8
....................            glcd_rect(6,43,121,55,NO,OFF); 
0293E:  MOVLW  06
02940:  MOVLB  2
02942:  MOVWF  x7B
02944:  MOVLW  2B
02946:  MOVWF  x7C
02948:  MOVLW  79
0294A:  MOVWF  x7D
0294C:  MOVLW  37
0294E:  MOVWF  x7E
02950:  CLRF   x7F
02952:  CLRF   x80
02954:  MOVLB  0
02956:  CALL   0EE8
....................            delay_ms(50); 
0295A:  MOVLW  32
0295C:  MOVLB  2
0295E:  MOVWF  x84
02960:  MOVLB  0
02962:  CALL   0D82
....................            s = read_adc(); 
02966:  BSF    FC2.1
02968:  BTFSC  FC2.1
0296A:  BRA    2968
0296C:  MOVFF  FC4,04
....................            delay_us(40); 
02970:  MOVLW  1A
02972:  MOVWF  00
02974:  DECFSZ 00,F
02976:  BRA    2974
02978:  NOP   
....................          
....................        while(s > 240){  // ha espera del nuevo enter  
0297A:  MOVF   04,W
0297C:  SUBLW  F0
0297E:  BC    2998
....................             s = read_adc(); 
02980:  BSF    FC2.1
02982:  BTFSC  FC2.1
02984:  BRA    2982
02986:  MOVFF  FC4,04
....................             delay_ms(50);//************************* 
0298A:  MOVLW  32
0298C:  MOVLB  2
0298E:  MOVWF  x84
02990:  MOVLB  0
02992:  CALL   0D82
....................             } 
02996:  BRA    297A
....................        if((s > 195 && s < 225)){ 
02998:  MOVF   04,W
0299A:  SUBLW  C3
0299C:  BC    29A8
0299E:  MOVF   04,W
029A0:  SUBLW  E0
029A2:  BNC   29A8
....................            goto CONF_RIEGO; } 
029A4:  GOTO   4BE0
....................             
....................        if( s > 10 && s < 40){ 
029A8:  MOVF   04,W
029AA:  SUBLW  0A
029AC:  BTFSC  FD8.0
029AE:  BRA    2A90
029B0:  MOVF   04,W
029B2:  SUBLW  27
029B4:  BNC   2A90
....................            glcd_rect(6,43,121,55,NO,ON); 
029B6:  MOVLW  06
029B8:  MOVLB  2
029BA:  MOVWF  x7B
029BC:  MOVLW  2B
029BE:  MOVWF  x7C
029C0:  MOVLW  79
029C2:  MOVWF  x7D
029C4:  MOVLW  37
029C6:  MOVWF  x7E
029C8:  CLRF   x7F
029CA:  MOVLW  01
029CC:  MOVWF  x80
029CE:  MOVLB  0
029D0:  CALL   0EE8
....................            glcd_rect(6,26,121,38,NO,OFF); 
029D4:  MOVLW  06
029D6:  MOVLB  2
029D8:  MOVWF  x7B
029DA:  MOVLW  1A
029DC:  MOVWF  x7C
029DE:  MOVLW  79
029E0:  MOVWF  x7D
029E2:  MOVLW  26
029E4:  MOVWF  x7E
029E6:  CLRF   x7F
029E8:  CLRF   x80
029EA:  MOVLB  0
029EC:  CALL   0EE8
....................            delay_ms(50); 
029F0:  MOVLW  32
029F2:  MOVLB  2
029F4:  MOVWF  x84
029F6:  MOVLB  0
029F8:  CALL   0D82
....................            s = read_adc(); 
029FC:  BSF    FC2.1
029FE:  BTFSC  FC2.1
02A00:  BRA    29FE
02A02:  MOVFF  FC4,04
....................            delay_us(40); 
02A06:  MOVLW  1A
02A08:  MOVWF  00
02A0A:  DECFSZ 00,F
02A0C:  BRA    2A0A
02A0E:  NOP   
....................          
....................         while(s > 240){  // ha espera del nuevo enter 
02A10:  MOVF   04,W
02A12:  SUBLW  F0
02A14:  BC    2A2E
....................             s = read_adc(); 
02A16:  BSF    FC2.1
02A18:  BTFSC  FC2.1
02A1A:  BRA    2A18
02A1C:  MOVFF  FC4,04
....................             delay_ms(50);//************************* 
02A20:  MOVLW  32
02A22:  MOVLB  2
02A24:  MOVWF  x84
02A26:  MOVLB  0
02A28:  CALL   0D82
....................             } 
02A2C:  BRA    2A10
....................        if((s > 195 && s < 225)){ 
02A2E:  MOVF   04,W
02A30:  SUBLW  C3
02A32:  BC    2A3E
02A34:  MOVF   04,W
02A36:  SUBLW  E0
02A38:  BNC   2A3E
....................            goto CONF_TEMP; } 
02A3A:  GOTO   402A
....................             
....................        if( s > 10 && s < 40){ 
02A3E:  MOVF   04,W
02A40:  SUBLW  0A
02A42:  BC    2A90
02A44:  MOVF   04,W
02A46:  SUBLW  27
02A48:  BNC   2A90
....................           glcd_rect(6,26,121,38,NO,ON); 
02A4A:  MOVLW  06
02A4C:  MOVLB  2
02A4E:  MOVWF  x7B
02A50:  MOVLW  1A
02A52:  MOVWF  x7C
02A54:  MOVLW  79
02A56:  MOVWF  x7D
02A58:  MOVLW  26
02A5A:  MOVWF  x7E
02A5C:  CLRF   x7F
02A5E:  MOVLW  01
02A60:  MOVWF  x80
02A62:  MOVLB  0
02A64:  CALL   0EE8
....................           glcd_rect(6,6,121,21,NO,OFF); 
02A68:  MOVLW  06
02A6A:  MOVLB  2
02A6C:  MOVWF  x7B
02A6E:  MOVWF  x7C
02A70:  MOVLW  79
02A72:  MOVWF  x7D
02A74:  MOVLW  15
02A76:  MOVWF  x7E
02A78:  CLRF   x7F
02A7A:  CLRF   x80
02A7C:  MOVLB  0
02A7E:  CALL   0EE8
....................            delay_ms(50); 
02A82:  MOVLW  32
02A84:  MOVLB  2
02A86:  MOVWF  x84
02A88:  MOVLB  0
02A8A:  CALL   0D82
....................         
....................                
....................           goto  CUADRO_MENU; 
02A8E:  BRA    2836
....................          
....................          
....................         } 
....................        } 
....................             
....................            goto segunda_abajo; 
02A90:  BRA    2920
....................              
....................   CONF_RTC:  
....................    
....................   glcd_fillScreen(0); 
02A92:  MOVLB  2
02A94:  CLRF   x7C
02A96:  MOVLB  0
02A98:  CALL   0A62
....................   glcd_rect(0,0,127,63,NO,ON); 
02A9C:  MOVLB  2
02A9E:  CLRF   x7B
02AA0:  CLRF   x7C
02AA2:  MOVLW  7F
02AA4:  MOVWF  x7D
02AA6:  MOVLW  3F
02AA8:  MOVWF  x7E
02AAA:  CLRF   x7F
02AAC:  MOVLW  01
02AAE:  MOVWF  x80
02AB0:  MOVLB  0
02AB2:  CALL   0EE8
....................   glcd_rect(1,1,126,62,NO,ON); 
02AB6:  MOVLW  01
02AB8:  MOVLB  2
02ABA:  MOVWF  x7B
02ABC:  MOVWF  x7C
02ABE:  MOVLW  7E
02AC0:  MOVWF  x7D
02AC2:  MOVLW  3E
02AC4:  MOVWF  x7E
02AC6:  CLRF   x7F
02AC8:  MOVLW  01
02ACA:  MOVWF  x80
02ACC:  MOVLB  0
02ACE:  CALL   0EE8
....................   glcd_text57(5,5,TIMENOW, 1, 1); 
02AD2:  MOVLW  05
02AD4:  MOVLB  2
02AD6:  MOVWF  x7B
02AD8:  MOVWF  x7C
02ADA:  CLRF   x7E
02ADC:  MOVLW  CE
02ADE:  MOVWF  x7D
02AE0:  MOVLW  01
02AE2:  MOVWF  x7F
02AE4:  MOVWF  x80
02AE6:  MOVLB  0
02AE8:  CALL   0FAA
....................   leerRTC(); 
02AEC:  CALL   1238
....................   sprintf(Pgeneral,"\%02d:\%02d:\%02d \%cM", hr,min,sec,time); 
02AF0:  MOVLB  2
02AF2:  CLRF   x78
02AF4:  MOVLW  2E
02AF6:  MOVWF  x77
02AF8:  MOVFF  0A,27B
02AFC:  MOVLW  01
02AFE:  MOVWF  x7C
02B00:  MOVLB  0
02B02:  CALL   1402
02B06:  MOVLW  3A
02B08:  MOVLB  2
02B0A:  MOVWF  x88
02B0C:  MOVLB  0
02B0E:  CALL   13E2
02B12:  MOVFF  0B,27B
02B16:  MOVLW  01
02B18:  MOVLB  2
02B1A:  MOVWF  x7C
02B1C:  MOVLB  0
02B1E:  CALL   1402
02B22:  MOVLW  3A
02B24:  MOVLB  2
02B26:  MOVWF  x88
02B28:  MOVLB  0
02B2A:  CALL   13E2
02B2E:  MOVFF  0C,27B
02B32:  MOVLW  01
02B34:  MOVLB  2
02B36:  MOVWF  x7C
02B38:  MOVLB  0
02B3A:  CALL   1402
02B3E:  MOVLW  20
02B40:  MOVLB  2
02B42:  MOVWF  x88
02B44:  MOVLB  0
02B46:  CALL   13E2
02B4A:  MOVFF  2B,288
02B4E:  CALL   13E2
02B52:  MOVLW  4D
02B54:  MOVLB  2
02B56:  MOVWF  x88
02B58:  MOVLB  0
02B5A:  CALL   13E2
....................   glcd_text57(5,15,Pgeneral, 1, 1); 
02B5E:  MOVLW  05
02B60:  MOVLB  2
02B62:  MOVWF  x7B
02B64:  MOVLW  0F
02B66:  MOVWF  x7C
02B68:  CLRF   x7E
02B6A:  MOVLW  2E
02B6C:  MOVWF  x7D
02B6E:  MOVLW  01
02B70:  MOVWF  x7F
02B72:  MOVWF  x80
02B74:  MOVLB  0
02B76:  CALL   0FAA
....................   sprintf(Pgeneral,"\%02d/\%02d/\%02d", dia,mes,yr); 
02B7A:  MOVLB  2
02B7C:  CLRF   x78
02B7E:  MOVLW  2E
02B80:  MOVWF  x77
02B82:  MOVFF  0E,27B
02B86:  MOVLW  01
02B88:  MOVWF  x7C
02B8A:  MOVLB  0
02B8C:  CALL   1402
02B90:  MOVLW  2F
02B92:  MOVLB  2
02B94:  MOVWF  x88
02B96:  MOVLB  0
02B98:  CALL   13E2
02B9C:  MOVFF  0F,27B
02BA0:  MOVLW  01
02BA2:  MOVLB  2
02BA4:  MOVWF  x7C
02BA6:  MOVLB  0
02BA8:  CALL   1402
02BAC:  MOVLW  2F
02BAE:  MOVLB  2
02BB0:  MOVWF  x88
02BB2:  MOVLB  0
02BB4:  CALL   13E2
02BB8:  MOVFF  11,27B
02BBC:  MOVLW  01
02BBE:  MOVLB  2
02BC0:  MOVWF  x7C
02BC2:  MOVLB  0
02BC4:  CALL   1402
....................   glcd_text57(5,25,Pgeneral, 1, 1); 
02BC8:  MOVLW  05
02BCA:  MOVLB  2
02BCC:  MOVWF  x7B
02BCE:  MOVLW  19
02BD0:  MOVWF  x7C
02BD2:  CLRF   x7E
02BD4:  MOVLW  2E
02BD6:  MOVWF  x7D
02BD8:  MOVLW  01
02BDA:  MOVWF  x7F
02BDC:  MOVWF  x80
02BDE:  MOVLB  0
02BE0:  CALL   0FAA
....................    
....................     if(dow == 1) 
02BE4:  DECFSZ 10,W
02BE6:  BRA    2C06
....................       glcd_text57(60,25,DOMINGO, 1, 1); 
02BE8:  MOVLW  3C
02BEA:  MOVLB  2
02BEC:  MOVWF  x7B
02BEE:  MOVLW  19
02BF0:  MOVWF  x7C
02BF2:  MOVLW  01
02BF4:  MOVWF  x7E
02BF6:  MOVLW  0F
02BF8:  MOVWF  x7D
02BFA:  MOVLW  01
02BFC:  MOVWF  x7F
02BFE:  MOVWF  x80
02C00:  MOVLB  0
02C02:  CALL   0FAA
....................     if(dow == 2) 
02C06:  MOVF   10,W
02C08:  SUBLW  02
02C0A:  BNZ   2C2A
....................       glcd_text57(60,25,LUNES, 1, 1); 
02C0C:  MOVLW  3C
02C0E:  MOVLB  2
02C10:  MOVWF  x7B
02C12:  MOVLW  19
02C14:  MOVWF  x7C
02C16:  MOVLW  01
02C18:  MOVWF  x7E
02C1A:  MOVLW  17
02C1C:  MOVWF  x7D
02C1E:  MOVLW  01
02C20:  MOVWF  x7F
02C22:  MOVWF  x80
02C24:  MOVLB  0
02C26:  CALL   0FAA
....................     if(dow == 3) 
02C2A:  MOVF   10,W
02C2C:  SUBLW  03
02C2E:  BNZ   2C4E
....................       glcd_text57(60,25,MARTES, 1, 1); 
02C30:  MOVLW  3C
02C32:  MOVLB  2
02C34:  MOVWF  x7B
02C36:  MOVLW  19
02C38:  MOVWF  x7C
02C3A:  MOVLW  01
02C3C:  MOVWF  x7E
02C3E:  MOVLW  32
02C40:  MOVWF  x7D
02C42:  MOVLW  01
02C44:  MOVWF  x7F
02C46:  MOVWF  x80
02C48:  MOVLB  0
02C4A:  CALL   0FAA
....................     if(dow == 4) 
02C4E:  MOVF   10,W
02C50:  SUBLW  04
02C52:  BNZ   2C72
....................       glcd_text57(60,25,MIERCOLES, 1, 1); 
02C54:  MOVLW  3C
02C56:  MOVLB  2
02C58:  MOVWF  x7B
02C5A:  MOVLW  19
02C5C:  MOVWF  x7C
02C5E:  MOVLW  01
02C60:  MOVWF  x7E
02C62:  MOVLW  39
02C64:  MOVWF  x7D
02C66:  MOVLW  01
02C68:  MOVWF  x7F
02C6A:  MOVWF  x80
02C6C:  MOVLB  0
02C6E:  CALL   0FAA
....................     if(dow == 5) 
02C72:  MOVF   10,W
02C74:  SUBLW  05
02C76:  BNZ   2C96
....................       glcd_text57(60,25,JUEVES, 1, 1); 
02C78:  MOVLW  3C
02C7A:  MOVLB  2
02C7C:  MOVWF  x7B
02C7E:  MOVLW  19
02C80:  MOVWF  x7C
02C82:  MOVLW  01
02C84:  MOVWF  x7E
02C86:  MOVLW  43
02C88:  MOVWF  x7D
02C8A:  MOVLW  01
02C8C:  MOVWF  x7F
02C8E:  MOVWF  x80
02C90:  MOVLB  0
02C92:  CALL   0FAA
....................     if(dow == 6) 
02C96:  MOVF   10,W
02C98:  SUBLW  06
02C9A:  BNZ   2CBA
....................       glcd_text57(60,25,VIERNES, 1, 1); 
02C9C:  MOVLW  3C
02C9E:  MOVLB  2
02CA0:  MOVWF  x7B
02CA2:  MOVLW  19
02CA4:  MOVWF  x7C
02CA6:  MOVLW  01
02CA8:  MOVWF  x7E
02CAA:  MOVLW  4A
02CAC:  MOVWF  x7D
02CAE:  MOVLW  01
02CB0:  MOVWF  x7F
02CB2:  MOVWF  x80
02CB4:  MOVLB  0
02CB6:  CALL   0FAA
....................     if(dow == 7) 
02CBA:  MOVF   10,W
02CBC:  SUBLW  07
02CBE:  BNZ   2CDE
....................       glcd_text57(60,25,SABADO, 1, 1); 
02CC0:  MOVLW  3C
02CC2:  MOVLB  2
02CC4:  MOVWF  x7B
02CC6:  MOVLW  19
02CC8:  MOVWF  x7C
02CCA:  MOVLW  01
02CCC:  MOVWF  x7E
02CCE:  MOVLW  52
02CD0:  MOVWF  x7D
02CD2:  MOVLW  01
02CD4:  MOVWF  x7F
02CD6:  MOVWF  x80
02CD8:  MOVLB  0
02CDA:  CALL   0FAA
....................    
....................    glcd_rect(8,37,43,58,YES,ON); 
02CDE:  MOVLW  08
02CE0:  MOVLB  2
02CE2:  MOVWF  x7B
02CE4:  MOVLW  25
02CE6:  MOVWF  x7C
02CE8:  MOVLW  2B
02CEA:  MOVWF  x7D
02CEC:  MOVLW  3A
02CEE:  MOVWF  x7E
02CF0:  MOVLW  01
02CF2:  MOVWF  x7F
02CF4:  MOVWF  x80
02CF6:  MOVLB  0
02CF8:  CALL   0EE8
....................    glcd_rect(46,37,81,58,YES,ON); 
02CFC:  MOVLW  2E
02CFE:  MOVLB  2
02D00:  MOVWF  x7B
02D02:  MOVLW  25
02D04:  MOVWF  x7C
02D06:  MOVLW  51
02D08:  MOVWF  x7D
02D0A:  MOVLW  3A
02D0C:  MOVWF  x7E
02D0E:  MOVLW  01
02D10:  MOVWF  x7F
02D12:  MOVWF  x80
02D14:  MOVLB  0
02D16:  CALL   0EE8
....................    glcd_rect(84,37,119,58,YES,ON); 
02D1A:  MOVLW  54
02D1C:  MOVLB  2
02D1E:  MOVWF  x7B
02D20:  MOVLW  25
02D22:  MOVWF  x7C
02D24:  MOVLW  77
02D26:  MOVWF  x7D
02D28:  MOVLW  3A
02D2A:  MOVWF  x7E
02D2C:  MOVLW  01
02D2E:  MOVWF  x7F
02D30:  MOVWF  x80
02D32:  MOVLB  0
02D34:  CALL   0EE8
....................     
....................    glcd_rect(9,38,42,57,NO,OFF); 
02D38:  MOVLW  09
02D3A:  MOVLB  2
02D3C:  MOVWF  x7B
02D3E:  MOVLW  26
02D40:  MOVWF  x7C
02D42:  MOVLW  2A
02D44:  MOVWF  x7D
02D46:  MOVLW  39
02D48:  MOVWF  x7E
02D4A:  CLRF   x7F
02D4C:  CLRF   x80
02D4E:  MOVLB  0
02D50:  CALL   0EE8
....................  
....................    glcd_text57(14,45,SET_TIME, 1, 0);   
02D54:  MOVLW  0E
02D56:  MOVLB  2
02D58:  MOVWF  x7B
02D5A:  MOVLW  2D
02D5C:  MOVWF  x7C
02D5E:  MOVLW  01
02D60:  MOVWF  x7E
02D62:  MOVLW  74
02D64:  MOVWF  x7D
02D66:  MOVLW  01
02D68:  MOVWF  x7F
02D6A:  CLRF   x80
02D6C:  MOVLB  0
02D6E:  CALL   0FAA
....................    glcd_text57(49,45,SETDATE, 1, 0);  
02D72:  MOVLW  31
02D74:  MOVLB  2
02D76:  MOVWF  x7B
02D78:  MOVLW  2D
02D7A:  MOVWF  x7C
02D7C:  MOVLW  01
02D7E:  MOVWF  x7E
02D80:  MOVLW  79
02D82:  MOVWF  x7D
02D84:  MOVLW  01
02D86:  MOVWF  x7F
02D88:  CLRF   x80
02D8A:  MOVLB  0
02D8C:  CALL   0FAA
....................    glcd_text57(86,45,SALIR,1,0); 
02D90:  MOVLW  56
02D92:  MOVLB  2
02D94:  MOVWF  x7B
02D96:  MOVLW  2D
02D98:  MOVWF  x7C
02D9A:  MOVLW  01
02D9C:  MOVWF  x7E
02D9E:  MOVLW  7F
02DA0:  MOVWF  x7D
02DA2:  MOVLW  01
02DA4:  MOVWF  x7F
02DA6:  CLRF   x80
02DA8:  MOVLB  0
02DAA:  CALL   0FAA
....................     
....................     
....................  START2: 
....................  s= read_adc(); 
02DAE:  BSF    FC2.1
02DB0:  BTFSC  FC2.1
02DB2:  BRA    2DB0
02DB4:  MOVFF  FC4,04
....................  delay_ms(50); 
02DB8:  MOVLW  32
02DBA:  MOVLB  2
02DBC:  MOVWF  x84
02DBE:  MOVLB  0
02DC0:  CALL   0D82
....................   
....................  while(s>230){     //visualizar lectura de RTC 
02DC4:  MOVF   04,W
02DC6:  SUBLW  E6
02DC8:  BC    2EA0
....................  leerRTC(); 
02DCA:  CALL   1238
....................  delay_ms(50); 
02DCE:  MOVLW  32
02DD0:  MOVLB  2
02DD2:  MOVWF  x84
02DD4:  MOVLB  0
02DD6:  CALL   0D82
....................       if (sec != oldsec){ 
02DDA:  MOVF   0D,W
02DDC:  SUBWF  0C,W
02DDE:  BZ    2E8A
....................          glcd_text57(5,15,Pgeneral,1,0); 
02DE0:  MOVLW  05
02DE2:  MOVLB  2
02DE4:  MOVWF  x7B
02DE6:  MOVLW  0F
02DE8:  MOVWF  x7C
02DEA:  CLRF   x7E
02DEC:  MOVLW  2E
02DEE:  MOVWF  x7D
02DF0:  MOVLW  01
02DF2:  MOVWF  x7F
02DF4:  CLRF   x80
02DF6:  MOVLB  0
02DF8:  CALL   0FAA
....................          sprintf(Pgeneral,"\%02d:\%02d:\%02d \%cM",hr,min,sec,time); 
02DFC:  MOVLB  2
02DFE:  CLRF   x78
02E00:  MOVLW  2E
02E02:  MOVWF  x77
02E04:  MOVFF  0A,27B
02E08:  MOVLW  01
02E0A:  MOVWF  x7C
02E0C:  MOVLB  0
02E0E:  CALL   1402
02E12:  MOVLW  3A
02E14:  MOVLB  2
02E16:  MOVWF  x88
02E18:  MOVLB  0
02E1A:  CALL   13E2
02E1E:  MOVFF  0B,27B
02E22:  MOVLW  01
02E24:  MOVLB  2
02E26:  MOVWF  x7C
02E28:  MOVLB  0
02E2A:  CALL   1402
02E2E:  MOVLW  3A
02E30:  MOVLB  2
02E32:  MOVWF  x88
02E34:  MOVLB  0
02E36:  CALL   13E2
02E3A:  MOVFF  0C,27B
02E3E:  MOVLW  01
02E40:  MOVLB  2
02E42:  MOVWF  x7C
02E44:  MOVLB  0
02E46:  CALL   1402
02E4A:  MOVLW  20
02E4C:  MOVLB  2
02E4E:  MOVWF  x88
02E50:  MOVLB  0
02E52:  CALL   13E2
02E56:  MOVFF  2B,288
02E5A:  CALL   13E2
02E5E:  MOVLW  4D
02E60:  MOVLB  2
02E62:  MOVWF  x88
02E64:  MOVLB  0
02E66:  CALL   13E2
....................          glcd_text57(5,15,Pgeneral,1,1); 
02E6A:  MOVLW  05
02E6C:  MOVLB  2
02E6E:  MOVWF  x7B
02E70:  MOVLW  0F
02E72:  MOVWF  x7C
02E74:  CLRF   x7E
02E76:  MOVLW  2E
02E78:  MOVWF  x7D
02E7A:  MOVLW  01
02E7C:  MOVWF  x7F
02E7E:  MOVWF  x80
02E80:  MOVLB  0
02E82:  CALL   0FAA
....................          oldsec=sec; 
02E86:  MOVFF  0C,0D
....................       } 
....................  s =read_adc(); 
02E8A:  BSF    FC2.1
02E8C:  BTFSC  FC2.1
02E8E:  BRA    2E8C
02E90:  MOVFF  FC4,04
....................  delay_us(40); 
02E94:  MOVLW  1A
02E96:  MOVWF  00
02E98:  DECFSZ 00,F
02E9A:  BRA    2E98
02E9C:  NOP   
....................  } 
02E9E:  BRA    2DC4
....................   
....................    if(s > 195 && s < 225) //enter 
02EA0:  MOVF   04,W
02EA2:  SUBLW  C3
02EA4:  BC    2EB0
02EA6:  MOVF   04,W
02EA8:  SUBLW  E0
02EAA:  BNC   2EB0
....................        goto CONF_HORA; 
02EAC:  BRA    30C8
....................    else if (s > 165 &&  s < 185){ 
02EAE:  BRA    30C2
02EB0:  MOVF   04,W
02EB2:  SUBLW  A5
02EB4:  BTFSC  FD8.0
02EB6:  BRA    30C2
02EB8:  MOVF   04,W
02EBA:  SUBLW  B8
02EBC:  BTFSS  FD8.0
02EBE:  BRA    30C2
....................        Return1: 
....................        glcd_rect(9,38,42,57,NO,ON); 
02EC0:  MOVLW  09
02EC2:  MOVLB  2
02EC4:  MOVWF  x7B
02EC6:  MOVLW  26
02EC8:  MOVWF  x7C
02ECA:  MOVLW  2A
02ECC:  MOVWF  x7D
02ECE:  MOVLW  39
02ED0:  MOVWF  x7E
02ED2:  CLRF   x7F
02ED4:  MOVLW  01
02ED6:  MOVWF  x80
02ED8:  MOVLB  0
02EDA:  CALL   0EE8
....................        glcd_rect(47,38,80,57,NO,OFF); 
02EDE:  MOVLW  2F
02EE0:  MOVLB  2
02EE2:  MOVWF  x7B
02EE4:  MOVLW  26
02EE6:  MOVWF  x7C
02EE8:  MOVLW  50
02EEA:  MOVWF  x7D
02EEC:  MOVLW  39
02EEE:  MOVWF  x7E
02EF0:  CLRF   x7F
02EF2:  CLRF   x80
02EF4:  MOVLB  0
02EF6:  CALL   0EE8
....................        glcd_rect(85,38,118,57,NO,ON); 
02EFA:  MOVLW  55
02EFC:  MOVLB  2
02EFE:  MOVWF  x7B
02F00:  MOVLW  26
02F02:  MOVWF  x7C
02F04:  MOVLW  76
02F06:  MOVWF  x7D
02F08:  MOVLW  39
02F0A:  MOVWF  x7E
02F0C:  CLRF   x7F
02F0E:  MOVLW  01
02F10:  MOVWF  x80
02F12:  MOVLB  0
02F14:  CALL   0EE8
....................        delay_ms(500); 
02F18:  MOVLW  02
02F1A:  MOVLB  2
02F1C:  MOVWF  x7B
02F1E:  MOVLW  FA
02F20:  MOVWF  x84
02F22:  MOVLB  0
02F24:  CALL   0D82
02F28:  MOVLB  2
02F2A:  DECFSZ x7B,F
02F2C:  BRA    2F1E
....................        s = read_adc(); 
02F2E:  BSF    FC2.1
02F30:  BTFSC  FC2.1
02F32:  BRA    2F30
02F34:  MOVFF  FC4,04
....................        delay_ms(50); 
02F38:  MOVLW  32
02F3A:  MOVWF  x84
02F3C:  MOVLB  0
02F3E:  CALL   0D82
....................        while(s > 240){ 
02F42:  MOVF   04,W
02F44:  SUBLW  F0
02F46:  BC    2F60
....................             s = read_adc(); 
02F48:  BSF    FC2.1
02F4A:  BTFSC  FC2.1
02F4C:  BRA    2F4A
02F4E:  MOVFF  FC4,04
....................             delay_ms(50);//******************** 
02F52:  MOVLW  32
02F54:  MOVLB  2
02F56:  MOVWF  x84
02F58:  MOVLB  0
02F5A:  CALL   0D82
....................             } 
02F5E:  BRA    2F42
....................        if(s > 195 && s < 225) //enter 
02F60:  MOVF   04,W
02F62:  SUBLW  C3
02F64:  BC    2F70
02F66:  MOVF   04,W
02F68:  SUBLW  E0
02F6A:  BNC   2F70
....................            goto CONF_FECHA; 
02F6C:  GOTO   380A
....................        if(s > 115 && s < 135){ //devolver 
02F70:  MOVF   04,W
02F72:  SUBLW  73
02F74:  BC    2FE4
02F76:  MOVF   04,W
02F78:  SUBLW  86
02F7A:  BNC   2FE4
....................             
....................            glcd_rect(9,38,42,57,NO,OFF); 
02F7C:  MOVLW  09
02F7E:  MOVLB  2
02F80:  MOVWF  x7B
02F82:  MOVLW  26
02F84:  MOVWF  x7C
02F86:  MOVLW  2A
02F88:  MOVWF  x7D
02F8A:  MOVLW  39
02F8C:  MOVWF  x7E
02F8E:  CLRF   x7F
02F90:  CLRF   x80
02F92:  MOVLB  0
02F94:  CALL   0EE8
....................            glcd_rect(47,38,80,57,NO,ON); 
02F98:  MOVLW  2F
02F9A:  MOVLB  2
02F9C:  MOVWF  x7B
02F9E:  MOVLW  26
02FA0:  MOVWF  x7C
02FA2:  MOVLW  50
02FA4:  MOVWF  x7D
02FA6:  MOVLW  39
02FA8:  MOVWF  x7E
02FAA:  CLRF   x7F
02FAC:  MOVLW  01
02FAE:  MOVWF  x80
02FB0:  MOVLB  0
02FB2:  CALL   0EE8
....................            glcd_rect(85,38,118,57,NO,ON); 
02FB6:  MOVLW  55
02FB8:  MOVLB  2
02FBA:  MOVWF  x7B
02FBC:  MOVLW  26
02FBE:  MOVWF  x7C
02FC0:  MOVLW  76
02FC2:  MOVWF  x7D
02FC4:  MOVLW  39
02FC6:  MOVWF  x7E
02FC8:  CLRF   x7F
02FCA:  MOVLW  01
02FCC:  MOVWF  x80
02FCE:  MOVLB  0
02FD0:  CALL   0EE8
....................            delay_ms(50); 
02FD4:  MOVLW  32
02FD6:  MOVLB  2
02FD8:  MOVWF  x84
02FDA:  MOVLB  0
02FDC:  CALL   0D82
....................            goto START2; 
02FE0:  BRA    2DAE
....................        }    
....................        else if(s > 165 &&  s < 185){ //avanzar 
02FE2:  BRA    30C2
02FE4:  MOVF   04,W
02FE6:  SUBLW  A5
02FE8:  BTFSC  FD8.0
02FEA:  BRA    30C2
02FEC:  MOVF   04,W
02FEE:  SUBLW  B8
02FF0:  BTFSS  FD8.0
02FF2:  BRA    30C2
....................            glcd_rect(9,38,42,57,NO,ON); 
02FF4:  MOVLW  09
02FF6:  MOVLB  2
02FF8:  MOVWF  x7B
02FFA:  MOVLW  26
02FFC:  MOVWF  x7C
02FFE:  MOVLW  2A
03000:  MOVWF  x7D
03002:  MOVLW  39
03004:  MOVWF  x7E
03006:  CLRF   x7F
03008:  MOVLW  01
0300A:  MOVWF  x80
0300C:  MOVLB  0
0300E:  CALL   0EE8
....................            glcd_rect(47,38,80,57,NO,ON); 
03012:  MOVLW  2F
03014:  MOVLB  2
03016:  MOVWF  x7B
03018:  MOVLW  26
0301A:  MOVWF  x7C
0301C:  MOVLW  50
0301E:  MOVWF  x7D
03020:  MOVLW  39
03022:  MOVWF  x7E
03024:  CLRF   x7F
03026:  MOVLW  01
03028:  MOVWF  x80
0302A:  MOVLB  0
0302C:  CALL   0EE8
....................            glcd_rect(85,38,118,57,NO,OFF); 
03030:  MOVLW  55
03032:  MOVLB  2
03034:  MOVWF  x7B
03036:  MOVLW  26
03038:  MOVWF  x7C
0303A:  MOVLW  76
0303C:  MOVWF  x7D
0303E:  MOVLW  39
03040:  MOVWF  x7E
03042:  CLRF   x7F
03044:  CLRF   x80
03046:  MOVLB  0
03048:  CALL   0EE8
....................            delay_ms(100); 
0304C:  MOVLW  64
0304E:  MOVLB  2
03050:  MOVWF  x84
03052:  MOVLB  0
03054:  CALL   0D82
....................            s = read_adc(); 
03058:  BSF    FC2.1
0305A:  BTFSC  FC2.1
0305C:  BRA    305A
0305E:  MOVFF  FC4,04
....................            delay_us(40); 
03062:  MOVLW  1A
03064:  MOVWF  00
03066:  DECFSZ 00,F
03068:  BRA    3066
0306A:  NOP   
....................            while(s > 240){ 
0306C:  MOVF   04,W
0306E:  SUBLW  F0
03070:  BC    308A
....................            s = read_adc(); 
03072:  BSF    FC2.1
03074:  BTFSC  FC2.1
03076:  BRA    3074
03078:  MOVFF  FC4,04
....................            delay_ms(50);//******************** 
0307C:  MOVLW  32
0307E:  MOVLB  2
03080:  MOVWF  x84
03082:  MOVLB  0
03084:  CALL   0D82
....................             } 
03088:  BRA    306C
....................              if(s > 195 && s < 225) //enter 
0308A:  MOVF   04,W
0308C:  SUBLW  C3
0308E:  BC    30A0
03090:  MOVF   04,W
03092:  SUBLW  E0
03094:  BNC   30A0
....................            goto INICIO; 
03096:  MOVLB  2
03098:  GOTO   24DE
....................            else if(s > 115 && s < 135) 
0309C:  BRA    30C4
0309E:  MOVLB  0
030A0:  MOVF   04,W
030A2:  SUBLW  73
030A4:  BC    30B0
030A6:  MOVF   04,W
030A8:  SUBLW  86
030AA:  BNC   30B0
....................                goto Return1; 
030AC:  BRA    2EC0
....................            else if(s > 165 &&  s < 185) 
030AE:  BRA    30C2
030B0:  MOVF   04,W
030B2:  SUBLW  A5
030B4:  BC    30C0
030B6:  MOVF   04,W
030B8:  SUBLW  B8
030BA:  BNC   30C0
....................                goto START2; 
030BC:  BRA    2DAE
....................            else  
030BE:  BRA    30C2
....................                goto START2;     
030C0:  BRA    2DAE
030C2:  MOVLB  2
....................        }     
....................    } 
....................     goto START2;  
030C4:  MOVLB  0
030C6:  BRA    2DAE
....................      
....................     
....................     
....................      CONF_HORA: 
....................      
....................          glcd_fillScreen(0); 
030C8:  MOVLB  2
030CA:  CLRF   x7C
030CC:  MOVLB  0
030CE:  CALL   0A62
....................          glcd_rect(0,0,127,63,NO,ON); 
030D2:  MOVLB  2
030D4:  CLRF   x7B
030D6:  CLRF   x7C
030D8:  MOVLW  7F
030DA:  MOVWF  x7D
030DC:  MOVLW  3F
030DE:  MOVWF  x7E
030E0:  CLRF   x7F
030E2:  MOVLW  01
030E4:  MOVWF  x80
030E6:  MOVLB  0
030E8:  CALL   0EE8
....................          glcd_rect(1,1,126,62,NO,ON); 
030EC:  MOVLW  01
030EE:  MOVLB  2
030F0:  MOVWF  x7B
030F2:  MOVWF  x7C
030F4:  MOVLW  7E
030F6:  MOVWF  x7D
030F8:  MOVLW  3E
030FA:  MOVWF  x7E
030FC:  CLRF   x7F
030FE:  MOVLW  01
03100:  MOVWF  x80
03102:  MOVLB  0
03104:  CALL   0EE8
....................          glcd_text57(22,5,AJUSTEHORA, 1, 1); 
03108:  MOVLW  16
0310A:  MOVLB  2
0310C:  MOVWF  x7B
0310E:  MOVLW  05
03110:  MOVWF  x7C
03112:  MOVLW  01
03114:  MOVWF  x7E
03116:  MOVLW  85
03118:  MOVWF  x7D
0311A:  MOVLW  01
0311C:  MOVWF  x7F
0311E:  MOVWF  x80
03120:  MOVLB  0
03122:  CALL   0FAA
....................          sprintf(Pgeneral,"\%02d:\%02d \%cM", hr,min,time); 
03126:  MOVLB  2
03128:  CLRF   x78
0312A:  MOVLW  2E
0312C:  MOVWF  x77
0312E:  MOVFF  0A,27B
03132:  MOVLW  01
03134:  MOVWF  x7C
03136:  MOVLB  0
03138:  CALL   1402
0313C:  MOVLW  3A
0313E:  MOVLB  2
03140:  MOVWF  x88
03142:  MOVLB  0
03144:  CALL   13E2
03148:  MOVFF  0B,27B
0314C:  MOVLW  01
0314E:  MOVLB  2
03150:  MOVWF  x7C
03152:  MOVLB  0
03154:  CALL   1402
03158:  MOVLW  20
0315A:  MOVLB  2
0315C:  MOVWF  x88
0315E:  MOVLB  0
03160:  CALL   13E2
03164:  MOVFF  2B,288
03168:  CALL   13E2
0316C:  MOVLW  4D
0316E:  MOVLB  2
03170:  MOVWF  x88
03172:  MOVLB  0
03174:  CALL   13E2
....................          glcd_text57(20,18,Pgeneral, 2, 1);//aumenta el tamao del texto de la funcion  
03178:  MOVLW  14
0317A:  MOVLB  2
0317C:  MOVWF  x7B
0317E:  MOVLW  12
03180:  MOVWF  x7C
03182:  CLRF   x7E
03184:  MOVLW  2E
03186:  MOVWF  x7D
03188:  MOVLW  02
0318A:  MOVWF  x7F
0318C:  MOVLW  01
0318E:  MOVWF  x80
03190:  MOVLB  0
03192:  CALL   0FAA
....................           
....................          glcd_rect(20,34,40,35,YES,ON);         //   linea que selecciona LA HORA 
03196:  MOVLW  14
03198:  MOVLB  2
0319A:  MOVWF  x7B
0319C:  MOVLW  22
0319E:  MOVWF  x7C
031A0:  MOVLW  28
031A2:  MOVWF  x7D
031A4:  MOVLW  23
031A6:  MOVWF  x7E
031A8:  MOVLW  01
031AA:  MOVWF  x7F
031AC:  MOVWF  x80
031AE:  MOVLB  0
031B0:  CALL   0EE8
....................          glcd_rect(8,40,119,58,YES,ON);         //      recuadro 
031B4:  MOVLW  08
031B6:  MOVLB  2
031B8:  MOVWF  x7B
031BA:  MOVLW  28
031BC:  MOVWF  x7C
031BE:  MOVLW  77
031C0:  MOVWF  x7D
031C2:  MOVLW  3A
031C4:  MOVWF  x7E
031C6:  MOVLW  01
031C8:  MOVWF  x7F
031CA:  MOVWF  x80
031CC:  MOVLB  0
031CE:  CALL   0EE8
....................          glcd_text57(34,46,ESTABLECER, 1, 0);   // 
031D2:  MOVLW  22
031D4:  MOVLB  2
031D6:  MOVWF  x7B
031D8:  MOVLW  2E
031DA:  MOVWF  x7C
031DC:  MOVLW  01
031DE:  MOVWF  x7E
031E0:  MOVLW  A4
031E2:  MOVWF  x7D
031E4:  MOVLW  01
031E6:  MOVWF  x7F
031E8:  CLRF   x80
031EA:  MOVLB  0
031EC:  CALL   0FAA
....................           
....................          hrset = hr; 
031F0:  MOVFF  0A,08
....................          minset = min; 
031F4:  MOVFF  0B,09
....................          dayset= dia; 
031F8:  MOVFF  0E,05
....................          monthset = mes; 
031FC:  MOVFF  0F,06
....................          yrset = yr; 
03200:  MOVFF  11,07
....................           
....................      START4: 
....................          glcd_rect(20,34,40,35,YES,ON); 
03204:  MOVLW  14
03206:  MOVLB  2
03208:  MOVWF  x7B
0320A:  MOVLW  22
0320C:  MOVWF  x7C
0320E:  MOVLW  28
03210:  MOVWF  x7D
03212:  MOVLW  23
03214:  MOVWF  x7E
03216:  MOVLW  01
03218:  MOVWF  x7F
0321A:  MOVWF  x80
0321C:  MOVLB  0
0321E:  CALL   0EE8
....................          glcd_rect(52,34,73,35,YES,OFF);  
03222:  MOVLW  34
03224:  MOVLB  2
03226:  MOVWF  x7B
03228:  MOVLW  22
0322A:  MOVWF  x7C
0322C:  MOVLW  49
0322E:  MOVWF  x7D
03230:  MOVLW  23
03232:  MOVWF  x7E
03234:  MOVLW  01
03236:  MOVWF  x7F
03238:  CLRF   x80
0323A:  MOVLB  0
0323C:  CALL   0EE8
....................          glcd_rect(85,34,107,35,YES,OFF); 
03240:  MOVLW  55
03242:  MOVLB  2
03244:  MOVWF  x7B
03246:  MOVLW  22
03248:  MOVWF  x7C
0324A:  MOVLW  6B
0324C:  MOVWF  x7D
0324E:  MOVLW  23
03250:  MOVWF  x7E
03252:  MOVLW  01
03254:  MOVWF  x7F
03256:  CLRF   x80
03258:  MOVLB  0
0325A:  CALL   0EE8
....................        
....................          glcd_rect(9,41,118,57,NO,ON); 
0325E:  MOVLW  09
03260:  MOVLB  2
03262:  MOVWF  x7B
03264:  MOVLW  29
03266:  MOVWF  x7C
03268:  MOVLW  76
0326A:  MOVWF  x7D
0326C:  MOVLW  39
0326E:  MOVWF  x7E
03270:  CLRF   x7F
03272:  MOVLW  01
03274:  MOVWF  x80
03276:  MOVLB  0
03278:  CALL   0EE8
....................              s = read_adc();     
0327C:  BSF    FC2.1
0327E:  BTFSC  FC2.1
03280:  BRA    327E
03282:  MOVFF  FC4,04
....................              delay_ms(50); 
03286:  MOVLW  32
03288:  MOVLB  2
0328A:  MOVWF  x84
0328C:  MOVLB  0
0328E:  CALL   0D82
....................     
....................     
....................              while(s>230){ 
03292:  MOVF   04,W
03294:  SUBLW  E6
03296:  BC    32B0
....................                    s = read_adc();     
03298:  BSF    FC2.1
0329A:  BTFSC  FC2.1
0329C:  BRA    329A
0329E:  MOVFF  FC4,04
....................                    delay_ms(50); 
032A2:  MOVLW  32
032A4:  MOVLB  2
032A6:  MOVWF  x84
032A8:  MOVLB  0
032AA:  CALL   0D82
....................              } 
032AE:  BRA    3292
....................              if (s > 10 && s < 40){ // tecla arriba cuadrar hora 
032B0:  MOVF   04,W
032B2:  SUBLW  0A
032B4:  BC    3328
032B6:  MOVF   04,W
032B8:  SUBLW  27
032BA:  BNC   3328
....................                   
....................                  if(hrset > 11) 
032BC:  MOVF   08,W
032BE:  SUBLW  0B
032C0:  BC    32C4
....................                      hrset = 0; 
032C2:  CLRF   08
....................                  hrset ++; 
032C4:  INCF   08,F
....................                   
....................                  glcd_rect(20,18,40,32,YES,OFF); 
032C6:  MOVLW  14
032C8:  MOVLB  2
032CA:  MOVWF  x7B
032CC:  MOVLW  12
032CE:  MOVWF  x7C
032D0:  MOVLW  28
032D2:  MOVWF  x7D
032D4:  MOVLW  20
032D6:  MOVWF  x7E
032D8:  MOVLW  01
032DA:  MOVWF  x7F
032DC:  CLRF   x80
032DE:  MOVLB  0
032E0:  CALL   0EE8
....................                  sprintf(Pgeneral,"%02d", hrset); 
032E4:  MOVLB  2
032E6:  CLRF   x78
032E8:  MOVLW  2E
032EA:  MOVWF  x77
032EC:  MOVFF  08,27B
032F0:  MOVLW  01
032F2:  MOVWF  x7C
032F4:  MOVLB  0
032F6:  CALL   1402
....................                  glcd_text57(20,18,Pgeneral, 2, 1); 
032FA:  MOVLW  14
032FC:  MOVLB  2
032FE:  MOVWF  x7B
03300:  MOVLW  12
03302:  MOVWF  x7C
03304:  CLRF   x7E
03306:  MOVLW  2E
03308:  MOVWF  x7D
0330A:  MOVLW  02
0330C:  MOVWF  x7F
0330E:  MOVLW  01
03310:  MOVWF  x80
03312:  MOVLB  0
03314:  CALL   0FAA
....................                  delay_ms(100); 
03318:  MOVLW  64
0331A:  MOVLB  2
0331C:  MOVWF  x84
0331E:  MOVLB  0
03320:  CALL   0D82
....................                  goto START4; 
03324:  BRA    3204
....................              } 
....................                else if(s > 60 && s < 90){ 
03326:  BRA    3808
03328:  MOVF   04,W
0332A:  SUBLW  3C
0332C:  BC    33A0
0332E:  MOVF   04,W
03330:  SUBLW  59
03332:  BNC   33A0
....................                   
....................                  if(hrset < 1 ) 
03334:  MOVF   08,F
03336:  BNZ   333C
....................                      hrset = 13; 
03338:  MOVLW  0D
0333A:  MOVWF  08
....................                  hrset --; 
0333C:  DECF   08,F
....................                  glcd_rect(20,18,40,32,YES,OFF); 
0333E:  MOVLW  14
03340:  MOVLB  2
03342:  MOVWF  x7B
03344:  MOVLW  12
03346:  MOVWF  x7C
03348:  MOVLW  28
0334A:  MOVWF  x7D
0334C:  MOVLW  20
0334E:  MOVWF  x7E
03350:  MOVLW  01
03352:  MOVWF  x7F
03354:  CLRF   x80
03356:  MOVLB  0
03358:  CALL   0EE8
....................                  sprintf(Pgeneral,"%02d", hrset); 
0335C:  MOVLB  2
0335E:  CLRF   x78
03360:  MOVLW  2E
03362:  MOVWF  x77
03364:  MOVFF  08,27B
03368:  MOVLW  01
0336A:  MOVWF  x7C
0336C:  MOVLB  0
0336E:  CALL   1402
....................                  glcd_text57(20,18,Pgeneral, 2, 1); 
03372:  MOVLW  14
03374:  MOVLB  2
03376:  MOVWF  x7B
03378:  MOVLW  12
0337A:  MOVWF  x7C
0337C:  CLRF   x7E
0337E:  MOVLW  2E
03380:  MOVWF  x7D
03382:  MOVLW  02
03384:  MOVWF  x7F
03386:  MOVLW  01
03388:  MOVWF  x80
0338A:  MOVLB  0
0338C:  CALL   0FAA
....................                  delay_ms(100); 
03390:  MOVLW  64
03392:  MOVLB  2
03394:  MOVWF  x84
03396:  MOVLB  0
03398:  CALL   0D82
....................                  goto START4; 
0339C:  BRA    3204
....................              } 
....................          else if(s > 165 &&  s < 185){ 
0339E:  BRA    3808
033A0:  MOVF   04,W
033A2:  SUBLW  A5
033A4:  BTFSC  FD8.0
033A6:  BRA    3806
033A8:  MOVF   04,W
033AA:  SUBLW  B8
033AC:  BTFSS  FD8.0
033AE:  BRA    3806
....................                   
....................       
....................           START5:  
....................            
....................              glcd_rect(20,34,40,35,YES,OFF); 
033B0:  MOVLW  14
033B2:  MOVLB  2
033B4:  MOVWF  x7B
033B6:  MOVLW  22
033B8:  MOVWF  x7C
033BA:  MOVLW  28
033BC:  MOVWF  x7D
033BE:  MOVLW  23
033C0:  MOVWF  x7E
033C2:  MOVLW  01
033C4:  MOVWF  x7F
033C6:  CLRF   x80
033C8:  MOVLB  0
033CA:  CALL   0EE8
....................              glcd_rect(52,34,73,35,YES,ON); 
033CE:  MOVLW  34
033D0:  MOVLB  2
033D2:  MOVWF  x7B
033D4:  MOVLW  22
033D6:  MOVWF  x7C
033D8:  MOVLW  49
033DA:  MOVWF  x7D
033DC:  MOVLW  23
033DE:  MOVWF  x7E
033E0:  MOVLW  01
033E2:  MOVWF  x7F
033E4:  MOVWF  x80
033E6:  MOVLB  0
033E8:  CALL   0EE8
....................              glcd_rect(85,34,107,35,YES,OFF); 
033EC:  MOVLW  55
033EE:  MOVLB  2
033F0:  MOVWF  x7B
033F2:  MOVLW  22
033F4:  MOVWF  x7C
033F6:  MOVLW  6B
033F8:  MOVWF  x7D
033FA:  MOVLW  23
033FC:  MOVWF  x7E
033FE:  MOVLW  01
03400:  MOVWF  x7F
03402:  CLRF   x80
03404:  MOVLB  0
03406:  CALL   0EE8
....................              glcd_rect(9,41,118,57,NO,ON); 
0340A:  MOVLW  09
0340C:  MOVLB  2
0340E:  MOVWF  x7B
03410:  MOVLW  29
03412:  MOVWF  x7C
03414:  MOVLW  76
03416:  MOVWF  x7D
03418:  MOVLW  39
0341A:  MOVWF  x7E
0341C:  CLRF   x7F
0341E:  MOVLW  01
03420:  MOVWF  x80
03422:  MOVLB  0
03424:  CALL   0EE8
....................              delay_ms(200); 
03428:  MOVLW  C8
0342A:  MOVLB  2
0342C:  MOVWF  x84
0342E:  MOVLB  0
03430:  CALL   0D82
....................              s = read_adc();     
03434:  BSF    FC2.1
03436:  BTFSC  FC2.1
03438:  BRA    3436
0343A:  MOVFF  FC4,04
....................              delay_ms(50); 
0343E:  MOVLW  32
03440:  MOVLB  2
03442:  MOVWF  x84
03444:  MOVLB  0
03446:  CALL   0D82
....................              while(s>230){ 
0344A:  MOVF   04,W
0344C:  SUBLW  E6
0344E:  BC    3468
....................                    s = read_adc();     
03450:  BSF    FC2.1
03452:  BTFSC  FC2.1
03454:  BRA    3452
03456:  MOVFF  FC4,04
....................                    delay_ms(50); 
0345A:  MOVLW  32
0345C:  MOVLB  2
0345E:  MOVWF  x84
03460:  MOVLB  0
03462:  CALL   0D82
....................                    } 
03466:  BRA    344A
....................              if (s > 10 && s < 40){ 
03468:  MOVF   04,W
0346A:  SUBLW  0A
0346C:  BC    34DE
0346E:  MOVF   04,W
03470:  SUBLW  27
03472:  BNC   34DE
....................                  minset ++; 
03474:  INCF   09,F
....................                  if(minset > 59) 
03476:  MOVF   09,W
03478:  SUBLW  3B
0347A:  BC    347E
....................                      minset = 0; 
0347C:  CLRF   09
....................                         
....................                  glcd_rect(52,18,74,32,YES,OFF); 
0347E:  MOVLW  34
03480:  MOVLB  2
03482:  MOVWF  x7B
03484:  MOVLW  12
03486:  MOVWF  x7C
03488:  MOVLW  4A
0348A:  MOVWF  x7D
0348C:  MOVLW  20
0348E:  MOVWF  x7E
03490:  MOVLW  01
03492:  MOVWF  x7F
03494:  CLRF   x80
03496:  MOVLB  0
03498:  CALL   0EE8
....................                  sprintf(Pgeneral,"%02d", minset); 
0349C:  MOVLB  2
0349E:  CLRF   x78
034A0:  MOVLW  2E
034A2:  MOVWF  x77
034A4:  MOVFF  09,27B
034A8:  MOVLW  01
034AA:  MOVWF  x7C
034AC:  MOVLB  0
034AE:  CALL   1402
....................                  glcd_text57(52,18,Pgeneral, 2, 1); 
034B2:  MOVLW  34
034B4:  MOVLB  2
034B6:  MOVWF  x7B
034B8:  MOVLW  12
034BA:  MOVWF  x7C
034BC:  CLRF   x7E
034BE:  MOVLW  2E
034C0:  MOVWF  x7D
034C2:  MOVLW  02
034C4:  MOVWF  x7F
034C6:  MOVLW  01
034C8:  MOVWF  x80
034CA:  MOVLB  0
034CC:  CALL   0FAA
....................                  delay_ms(200); 
034D0:  MOVLW  C8
034D2:  MOVLB  2
034D4:  MOVWF  x84
034D6:  MOVLB  0
034D8:  CALL   0D82
....................                  goto START5; 
034DC:  BRA    33B0
....................              } 
....................               if(s > 60 && s < 90){ 
034DE:  MOVF   04,W
034E0:  SUBLW  3C
034E2:  BC    3556
034E4:  MOVF   04,W
034E6:  SUBLW  59
034E8:  BNC   3556
....................                   
....................                  minset --; 
034EA:  DECF   09,F
....................                  if(minset == -1 ) 
034EC:  MOVF   09,W
034EE:  SUBLW  FF
034F0:  BNZ   34F6
....................                      minset = 59; 
034F2:  MOVLW  3B
034F4:  MOVWF  09
....................                  glcd_rect(52,18,74,32,YES,OFF); 
034F6:  MOVLW  34
034F8:  MOVLB  2
034FA:  MOVWF  x7B
034FC:  MOVLW  12
034FE:  MOVWF  x7C
03500:  MOVLW  4A
03502:  MOVWF  x7D
03504:  MOVLW  20
03506:  MOVWF  x7E
03508:  MOVLW  01
0350A:  MOVWF  x7F
0350C:  CLRF   x80
0350E:  MOVLB  0
03510:  CALL   0EE8
....................                  sprintf(Pgeneral,"%02d", minset); 
03514:  MOVLB  2
03516:  CLRF   x78
03518:  MOVLW  2E
0351A:  MOVWF  x77
0351C:  MOVFF  09,27B
03520:  MOVLW  01
03522:  MOVWF  x7C
03524:  MOVLB  0
03526:  CALL   1402
....................                  glcd_text57(52,18,Pgeneral, 2, 1); 
0352A:  MOVLW  34
0352C:  MOVLB  2
0352E:  MOVWF  x7B
03530:  MOVLW  12
03532:  MOVWF  x7C
03534:  CLRF   x7E
03536:  MOVLW  2E
03538:  MOVWF  x7D
0353A:  MOVLW  02
0353C:  MOVWF  x7F
0353E:  MOVLW  01
03540:  MOVWF  x80
03542:  MOVLB  0
03544:  CALL   0FAA
....................                  delay_ms(100); 
03548:  MOVLW  64
0354A:  MOVLB  2
0354C:  MOVWF  x84
0354E:  MOVLB  0
03550:  CALL   0D82
....................                  goto START5; 
03554:  BRA    33B0
....................              }  
....................               if (s > 115 && s < 135){ 
03556:  MOVF   04,W
03558:  SUBLW  73
0355A:  BC    35E8
0355C:  MOVF   04,W
0355E:  SUBLW  86
03560:  BNC   35E8
....................                   
....................                  glcd_rect(20,34,40,35,YES,ON); 
03562:  MOVLW  14
03564:  MOVLB  2
03566:  MOVWF  x7B
03568:  MOVLW  22
0356A:  MOVWF  x7C
0356C:  MOVLW  28
0356E:  MOVWF  x7D
03570:  MOVLW  23
03572:  MOVWF  x7E
03574:  MOVLW  01
03576:  MOVWF  x7F
03578:  MOVWF  x80
0357A:  MOVLB  0
0357C:  CALL   0EE8
....................                  glcd_rect(52,34,73,35,YES,OFF); 
03580:  MOVLW  34
03582:  MOVLB  2
03584:  MOVWF  x7B
03586:  MOVLW  22
03588:  MOVWF  x7C
0358A:  MOVLW  49
0358C:  MOVWF  x7D
0358E:  MOVLW  23
03590:  MOVWF  x7E
03592:  MOVLW  01
03594:  MOVWF  x7F
03596:  CLRF   x80
03598:  MOVLB  0
0359A:  CALL   0EE8
....................                  glcd_rect(85,34,107,35,YES,OFF); 
0359E:  MOVLW  55
035A0:  MOVLB  2
035A2:  MOVWF  x7B
035A4:  MOVLW  22
035A6:  MOVWF  x7C
035A8:  MOVLW  6B
035AA:  MOVWF  x7D
035AC:  MOVLW  23
035AE:  MOVWF  x7E
035B0:  MOVLW  01
035B2:  MOVWF  x7F
035B4:  CLRF   x80
035B6:  MOVLB  0
035B8:  CALL   0EE8
....................                  glcd_rect(9,41,118,57,NO,ON); 
035BC:  MOVLW  09
035BE:  MOVLB  2
035C0:  MOVWF  x7B
035C2:  MOVLW  29
035C4:  MOVWF  x7C
035C6:  MOVLW  76
035C8:  MOVWF  x7D
035CA:  MOVLW  39
035CC:  MOVWF  x7E
035CE:  CLRF   x7F
035D0:  MOVLW  01
035D2:  MOVWF  x80
035D4:  MOVLB  0
035D6:  CALL   0EE8
....................                  delay_ms(200); 
035DA:  MOVLW  C8
035DC:  MOVLB  2
035DE:  MOVWF  x84
035E0:  MOVLB  0
035E2:  CALL   0D82
....................                  goto START4; 
035E6:  BRA    3204
....................              } 
....................               if(s > 165 &&  s < 185){ 
035E8:  MOVF   04,W
035EA:  SUBLW  A5
035EC:  BTFSC  FD8.0
035EE:  BRA    3804
035F0:  MOVF   04,W
035F2:  SUBLW  B8
035F4:  BTFSS  FD8.0
035F6:  BRA    3804
....................                  START6: 
....................                   
....................                  glcd_rect(20,34,40,35,YES,OFF); 
035F8:  MOVLW  14
035FA:  MOVLB  2
035FC:  MOVWF  x7B
035FE:  MOVLW  22
03600:  MOVWF  x7C
03602:  MOVLW  28
03604:  MOVWF  x7D
03606:  MOVLW  23
03608:  MOVWF  x7E
0360A:  MOVLW  01
0360C:  MOVWF  x7F
0360E:  CLRF   x80
03610:  MOVLB  0
03612:  CALL   0EE8
....................                  glcd_rect(52,34,73,35,YES,OFF);  
03616:  MOVLW  34
03618:  MOVLB  2
0361A:  MOVWF  x7B
0361C:  MOVLW  22
0361E:  MOVWF  x7C
03620:  MOVLW  49
03622:  MOVWF  x7D
03624:  MOVLW  23
03626:  MOVWF  x7E
03628:  MOVLW  01
0362A:  MOVWF  x7F
0362C:  CLRF   x80
0362E:  MOVLB  0
03630:  CALL   0EE8
....................                  glcd_rect(85,34,107,35,YES,ON); 
03634:  MOVLW  55
03636:  MOVLB  2
03638:  MOVWF  x7B
0363A:  MOVLW  22
0363C:  MOVWF  x7C
0363E:  MOVLW  6B
03640:  MOVWF  x7D
03642:  MOVLW  23
03644:  MOVWF  x7E
03646:  MOVLW  01
03648:  MOVWF  x7F
0364A:  MOVWF  x80
0364C:  MOVLB  0
0364E:  CALL   0EE8
....................                  glcd_rect(9,41,118,57,NO,ON); 
03652:  MOVLW  09
03654:  MOVLB  2
03656:  MOVWF  x7B
03658:  MOVLW  29
0365A:  MOVWF  x7C
0365C:  MOVLW  76
0365E:  MOVWF  x7D
03660:  MOVLW  39
03662:  MOVWF  x7E
03664:  CLRF   x7F
03666:  MOVLW  01
03668:  MOVWF  x80
0366A:  MOVLB  0
0366C:  CALL   0EE8
....................                   
....................                  delay_ms(200); 
03670:  MOVLW  C8
03672:  MOVLB  2
03674:  MOVWF  x84
03676:  MOVLB  0
03678:  CALL   0D82
....................                  s = read_adc();     
0367C:  BSF    FC2.1
0367E:  BTFSC  FC2.1
03680:  BRA    367E
03682:  MOVFF  FC4,04
....................                  delay_ms(50); 
03686:  MOVLW  32
03688:  MOVLB  2
0368A:  MOVWF  x84
0368C:  MOVLB  0
0368E:  CALL   0D82
....................                  while(s>230){ 
03692:  MOVF   04,W
03694:  SUBLW  E6
03696:  BC    36B0
....................                    s = read_adc();     
03698:  BSF    FC2.1
0369A:  BTFSC  FC2.1
0369C:  BRA    369A
0369E:  MOVFF  FC4,04
....................                    delay_ms(50); 
036A2:  MOVLW  32
036A4:  MOVLB  2
036A6:  MOVWF  x84
036A8:  MOVLB  0
036AA:  CALL   0D82
....................                    } 
036AE:  BRA    3692
....................                   if (s > 10 && s < 40){ 
036B0:  MOVF   04,W
036B2:  SUBLW  0A
036B4:  BC    3700
036B6:  MOVF   04,W
036B8:  SUBLW  27
036BA:  BNC   3700
....................                       
....................                      time = 1; 
036BC:  MOVLW  01
036BE:  MOVWF  2B
....................                      glcd_rect(85,18,102,32,YES,OFF); 
036C0:  MOVLW  55
036C2:  MOVLB  2
036C4:  MOVWF  x7B
036C6:  MOVLW  12
036C8:  MOVWF  x7C
036CA:  MOVLW  66
036CC:  MOVWF  x7D
036CE:  MOVLW  20
036D0:  MOVWF  x7E
036D2:  MOVLW  01
036D4:  MOVWF  x7F
036D6:  CLRF   x80
036D8:  MOVLB  0
036DA:  CALL   0EE8
....................                      glcd_text57(86,18,AM, 2, 1); 
036DE:  MOVLW  56
036E0:  MOVLB  2
036E2:  MOVWF  x7B
036E4:  MOVLW  12
036E6:  MOVWF  x7C
036E8:  MOVLW  01
036EA:  MOVWF  x7E
036EC:  MOVLW  AF
036EE:  MOVWF  x7D
036F0:  MOVLW  02
036F2:  MOVWF  x7F
036F4:  MOVLW  01
036F6:  MOVWF  x80
036F8:  MOVLB  0
036FA:  CALL   0FAA
....................                      goto START6; 
036FE:  BRA    35F8
....................                   } 
....................                    if (s > 60 && s < 90){ 
03700:  MOVF   04,W
03702:  SUBLW  3C
03704:  BC    374E
03706:  MOVF   04,W
03708:  SUBLW  59
0370A:  BNC   374E
....................                       
....................                      time = 0; 
0370C:  CLRF   2B
....................                      glcd_rect(85,18,102,32,YES,OFF); 
0370E:  MOVLW  55
03710:  MOVLB  2
03712:  MOVWF  x7B
03714:  MOVLW  12
03716:  MOVWF  x7C
03718:  MOVLW  66
0371A:  MOVWF  x7D
0371C:  MOVLW  20
0371E:  MOVWF  x7E
03720:  MOVLW  01
03722:  MOVWF  x7F
03724:  CLRF   x80
03726:  MOVLB  0
03728:  CALL   0EE8
....................                      glcd_text57(86,18,PM, 2, 1); 
0372C:  MOVLW  56
0372E:  MOVLB  2
03730:  MOVWF  x7B
03732:  MOVLW  12
03734:  MOVWF  x7C
03736:  MOVLW  01
03738:  MOVWF  x7E
0373A:  MOVLW  B2
0373C:  MOVWF  x7D
0373E:  MOVLW  02
03740:  MOVWF  x7F
03742:  MOVLW  01
03744:  MOVWF  x80
03746:  MOVLB  0
03748:  CALL   0FAA
....................                      goto START6; 
0374C:  BRA    35F8
....................                   } 
....................                   if (s > 115 && s < 135) 
0374E:  MOVF   04,W
03750:  SUBLW  73
03752:  BC    375C
03754:  MOVF   04,W
03756:  SUBLW  86
03758:  BNC   375C
....................                     goto START5; 
0375A:  BRA    33B0
....................                   
....................                  if(s > 165 &&  s < 185){ 
0375C:  MOVF   04,W
0375E:  SUBLW  A5
03760:  BC    3802
03762:  MOVF   04,W
03764:  SUBLW  B8
03766:  BNC   3802
....................                     glcd_rect(85,34,107,35,YES,OFF);  
03768:  MOVLW  55
0376A:  MOVLB  2
0376C:  MOVWF  x7B
0376E:  MOVLW  22
03770:  MOVWF  x7C
03772:  MOVLW  6B
03774:  MOVWF  x7D
03776:  MOVLW  23
03778:  MOVWF  x7E
0377A:  MOVLW  01
0377C:  MOVWF  x7F
0377E:  CLRF   x80
03780:  MOVLB  0
03782:  CALL   0EE8
....................                     glcd_rect(9,41,118,57,NO,OFF); 
03786:  MOVLW  09
03788:  MOVLB  2
0378A:  MOVWF  x7B
0378C:  MOVLW  29
0378E:  MOVWF  x7C
03790:  MOVLW  76
03792:  MOVWF  x7D
03794:  MOVLW  39
03796:  MOVWF  x7E
03798:  CLRF   x7F
0379A:  CLRF   x80
0379C:  MOVLB  0
0379E:  CALL   0EE8
....................                     START7: 
....................                     delay_ms(200); 
037A2:  MOVLW  C8
037A4:  MOVLB  2
037A6:  MOVWF  x84
037A8:  MOVLB  0
037AA:  CALL   0D82
....................                     s = read_adc();     
037AE:  BSF    FC2.1
037B0:  BTFSC  FC2.1
037B2:  BRA    37B0
037B4:  MOVFF  FC4,04
....................                     delay_ms(50); 
037B8:  MOVLW  32
037BA:  MOVLB  2
037BC:  MOVWF  x84
037BE:  MOVLB  0
037C0:  CALL   0D82
....................                     while(s>230){ 
037C4:  MOVF   04,W
037C6:  SUBLW  E6
037C8:  BC    37E2
....................                        s = read_adc();     
037CA:  BSF    FC2.1
037CC:  BTFSC  FC2.1
037CE:  BRA    37CC
037D0:  MOVFF  FC4,04
....................                        delay_ms(50); 
037D4:  MOVLW  32
037D6:  MOVLB  2
037D8:  MOVWF  x84
037DA:  MOVLB  0
037DC:  CALL   0D82
....................                     } 
037E0:  BRA    37C4
....................                     if(s > 195 && s < 225) 
037E2:  MOVF   04,W
037E4:  SUBLW  C3
037E6:  BC    37F2
037E8:  MOVF   04,W
037EA:  SUBLW  E0
037EC:  BNC   37F2
....................                         goto SET_RTC; 
037EE:  GOTO   3F80
....................                     if(s > 115 && s < 135) 
037F2:  MOVF   04,W
037F4:  SUBLW  73
037F6:  BC    3800
037F8:  MOVF   04,W
037FA:  SUBLW  86
037FC:  BNC   3800
....................                         goto START6; 
037FE:  BRA    35F8
....................                  } 
....................                  else 
03800:  BRA    3804
....................                      goto START7; 
03802:  BRA    37A2
....................              }   
....................           } 
....................              else  
03804:  BRA    3808
....................                  goto START4; 
03806:  BRA    3204
....................              goto START4; 
03808:  BRA    3204
....................               
....................  ////////////////////////////////////////---------------------------------------------------------------------""""""""""""""""""""""""""""""""""""""" 
....................          
....................          CONF_FECHA: 
....................      
....................          glcd_fillScreen(0); 
0380A:  MOVLB  2
0380C:  CLRF   x7C
0380E:  MOVLB  0
03810:  CALL   0A62
....................          glcd_rect(0,0,127,63,NO,ON); 
03814:  MOVLB  2
03816:  CLRF   x7B
03818:  CLRF   x7C
0381A:  MOVLW  7F
0381C:  MOVWF  x7D
0381E:  MOVLW  3F
03820:  MOVWF  x7E
03822:  CLRF   x7F
03824:  MOVLW  01
03826:  MOVWF  x80
03828:  MOVLB  0
0382A:  CALL   0EE8
....................          glcd_rect(1,1,126,62,NO,ON); 
0382E:  MOVLW  01
03830:  MOVLB  2
03832:  MOVWF  x7B
03834:  MOVWF  x7C
03836:  MOVLW  7E
03838:  MOVWF  x7D
0383A:  MOVLW  3E
0383C:  MOVWF  x7E
0383E:  CLRF   x7F
03840:  MOVLW  01
03842:  MOVWF  x80
03844:  MOVLB  0
03846:  CALL   0EE8
....................          glcd_text57(22,5,AJUSTEFECHA, 1, 1); 
0384A:  MOVLW  16
0384C:  MOVLB  2
0384E:  MOVWF  x7B
03850:  MOVLW  05
03852:  MOVWF  x7C
03854:  MOVLW  01
03856:  MOVWF  x7E
03858:  MOVLW  94
0385A:  MOVWF  x7D
0385C:  MOVLW  01
0385E:  MOVWF  x7F
03860:  MOVWF  x80
03862:  MOVLB  0
03864:  CALL   0FAA
....................          //year = yr+2000; 
....................          sprintf(Pgeneral,"\%02d/\%02d/\%02d", dia,mes,yr); 
03868:  MOVLB  2
0386A:  CLRF   x78
0386C:  MOVLW  2E
0386E:  MOVWF  x77
03870:  MOVFF  0E,27B
03874:  MOVLW  01
03876:  MOVWF  x7C
03878:  MOVLB  0
0387A:  CALL   1402
0387E:  MOVLW  2F
03880:  MOVLB  2
03882:  MOVWF  x88
03884:  MOVLB  0
03886:  CALL   13E2
0388A:  MOVFF  0F,27B
0388E:  MOVLW  01
03890:  MOVLB  2
03892:  MOVWF  x7C
03894:  MOVLB  0
03896:  CALL   1402
0389A:  MOVLW  2F
0389C:  MOVLB  2
0389E:  MOVWF  x88
038A0:  MOVLB  0
038A2:  CALL   13E2
038A6:  MOVFF  11,27B
038AA:  MOVLW  01
038AC:  MOVLB  2
038AE:  MOVWF  x7C
038B0:  MOVLB  0
038B2:  CALL   1402
....................          glcd_text57(20,18,Pgeneral, 2, 1); 
038B6:  MOVLW  14
038B8:  MOVLB  2
038BA:  MOVWF  x7B
038BC:  MOVLW  12
038BE:  MOVWF  x7C
038C0:  CLRF   x7E
038C2:  MOVLW  2E
038C4:  MOVWF  x7D
038C6:  MOVLW  02
038C8:  MOVWF  x7F
038CA:  MOVLW  01
038CC:  MOVWF  x80
038CE:  MOVLB  0
038D0:  CALL   0FAA
....................           
....................          glcd_rect(20,34,40,35,YES,ON); 
038D4:  MOVLW  14
038D6:  MOVLB  2
038D8:  MOVWF  x7B
038DA:  MOVLW  22
038DC:  MOVWF  x7C
038DE:  MOVLW  28
038E0:  MOVWF  x7D
038E2:  MOVLW  23
038E4:  MOVWF  x7E
038E6:  MOVLW  01
038E8:  MOVWF  x7F
038EA:  MOVWF  x80
038EC:  MOVLB  0
038EE:  CALL   0EE8
....................          glcd_rect(8,40,119,58,YES,ON); 
038F2:  MOVLW  08
038F4:  MOVLB  2
038F6:  MOVWF  x7B
038F8:  MOVLW  28
038FA:  MOVWF  x7C
038FC:  MOVLW  77
038FE:  MOVWF  x7D
03900:  MOVLW  3A
03902:  MOVWF  x7E
03904:  MOVLW  01
03906:  MOVWF  x7F
03908:  MOVWF  x80
0390A:  MOVLB  0
0390C:  CALL   0EE8
....................          glcd_text57(34,46,ESTABLECER, 1, 0); 
03910:  MOVLW  22
03912:  MOVLB  2
03914:  MOVWF  x7B
03916:  MOVLW  2E
03918:  MOVWF  x7C
0391A:  MOVLW  01
0391C:  MOVWF  x7E
0391E:  MOVLW  A4
03920:  MOVWF  x7D
03922:  MOVLW  01
03924:  MOVWF  x7F
03926:  CLRF   x80
03928:  MOVLB  0
0392A:  CALL   0FAA
....................           
....................          hrset = hr; 
0392E:  MOVFF  0A,08
....................          minset = min; 
03932:  MOVFF  0B,09
....................          dayset = dia; 
03936:  MOVFF  0E,05
....................          monthset = mes; 
0393A:  MOVFF  0F,06
....................          yrset = yr; 
0393E:  MOVFF  11,07
....................          START8: 
....................          glcd_rect(20,34,40,35,YES,ON); 
03942:  MOVLW  14
03944:  MOVLB  2
03946:  MOVWF  x7B
03948:  MOVLW  22
0394A:  MOVWF  x7C
0394C:  MOVLW  28
0394E:  MOVWF  x7D
03950:  MOVLW  23
03952:  MOVWF  x7E
03954:  MOVLW  01
03956:  MOVWF  x7F
03958:  MOVWF  x80
0395A:  MOVLB  0
0395C:  CALL   0EE8
....................          glcd_rect(52,34,73,35,YES,OFF);  
03960:  MOVLW  34
03962:  MOVLB  2
03964:  MOVWF  x7B
03966:  MOVLW  22
03968:  MOVWF  x7C
0396A:  MOVLW  49
0396C:  MOVWF  x7D
0396E:  MOVLW  23
03970:  MOVWF  x7E
03972:  MOVLW  01
03974:  MOVWF  x7F
03976:  CLRF   x80
03978:  MOVLB  0
0397A:  CALL   0EE8
....................          glcd_rect(85,34,107,35,YES,OFF); 
0397E:  MOVLW  55
03980:  MOVLB  2
03982:  MOVWF  x7B
03984:  MOVLW  22
03986:  MOVWF  x7C
03988:  MOVLW  6B
0398A:  MOVWF  x7D
0398C:  MOVLW  23
0398E:  MOVWF  x7E
03990:  MOVLW  01
03992:  MOVWF  x7F
03994:  CLRF   x80
03996:  MOVLB  0
03998:  CALL   0EE8
....................           
....................          glcd_rect(9,41,118,57,NO,ON); 
0399C:  MOVLW  09
0399E:  MOVLB  2
039A0:  MOVWF  x7B
039A2:  MOVLW  29
039A4:  MOVWF  x7C
039A6:  MOVLW  76
039A8:  MOVWF  x7D
039AA:  MOVLW  39
039AC:  MOVWF  x7E
039AE:  CLRF   x7F
039B0:  MOVLW  01
039B2:  MOVWF  x80
039B4:  MOVLB  0
039B6:  CALL   0EE8
....................              s = read_adc();     
039BA:  BSF    FC2.1
039BC:  BTFSC  FC2.1
039BE:  BRA    39BC
039C0:  MOVFF  FC4,04
....................              delay_ms(50); 
039C4:  MOVLW  32
039C6:  MOVLB  2
039C8:  MOVWF  x84
039CA:  MOVLB  0
039CC:  CALL   0D82
....................    
....................              while(s>230){ 
039D0:  MOVF   04,W
039D2:  SUBLW  E6
039D4:  BC    39EE
....................                    s = read_adc();     
039D6:  BSF    FC2.1
039D8:  BTFSC  FC2.1
039DA:  BRA    39D8
039DC:  MOVFF  FC4,04
....................                    delay_ms(50); 
039E0:  MOVLW  32
039E2:  MOVLB  2
039E4:  MOVWF  x84
039E6:  MOVLB  0
039E8:  CALL   0D82
....................              } 
039EC:  BRA    39D0
....................              if (s > 10 && s < 40){ 
039EE:  MOVF   04,W
039F0:  SUBLW  0A
039F2:  BC    3A66
039F4:  MOVF   04,W
039F6:  SUBLW  27
039F8:  BNC   3A66
....................                   
....................                  if(dayset > 30) 
039FA:  MOVF   05,W
039FC:  SUBLW  1E
039FE:  BC    3A02
....................                      dayset = 0; 
03A00:  CLRF   05
....................                  dayset ++; 
03A02:  INCF   05,F
....................                  glcd_rect(20,18,40,32,YES,OFF); 
03A04:  MOVLW  14
03A06:  MOVLB  2
03A08:  MOVWF  x7B
03A0A:  MOVLW  12
03A0C:  MOVWF  x7C
03A0E:  MOVLW  28
03A10:  MOVWF  x7D
03A12:  MOVLW  20
03A14:  MOVWF  x7E
03A16:  MOVLW  01
03A18:  MOVWF  x7F
03A1A:  CLRF   x80
03A1C:  MOVLB  0
03A1E:  CALL   0EE8
....................                  sprintf(Pgeneral,"%02d", dayset); 
03A22:  MOVLB  2
03A24:  CLRF   x78
03A26:  MOVLW  2E
03A28:  MOVWF  x77
03A2A:  MOVFF  05,27B
03A2E:  MOVLW  01
03A30:  MOVWF  x7C
03A32:  MOVLB  0
03A34:  CALL   1402
....................                  glcd_text57(20,18,Pgeneral, 2, 1); 
03A38:  MOVLW  14
03A3A:  MOVLB  2
03A3C:  MOVWF  x7B
03A3E:  MOVLW  12
03A40:  MOVWF  x7C
03A42:  CLRF   x7E
03A44:  MOVLW  2E
03A46:  MOVWF  x7D
03A48:  MOVLW  02
03A4A:  MOVWF  x7F
03A4C:  MOVLW  01
03A4E:  MOVWF  x80
03A50:  MOVLB  0
03A52:  CALL   0FAA
....................                  delay_ms(100); 
03A56:  MOVLW  64
03A58:  MOVLB  2
03A5A:  MOVWF  x84
03A5C:  MOVLB  0
03A5E:  CALL   0D82
....................                  goto START8; 
03A62:  BRA    3942
....................              } 
....................              else if(s > 60 && s < 90){ 
03A64:  BRA    3F7E
03A66:  MOVF   04,W
03A68:  SUBLW  3C
03A6A:  BC    3ADE
03A6C:  MOVF   04,W
03A6E:  SUBLW  59
03A70:  BNC   3ADE
....................                  dayset --; 
03A72:  DECF   05,F
....................                  if(dayset < 1 ) 
03A74:  MOVF   05,F
03A76:  BNZ   3A7C
....................                      dayset = 31; 
03A78:  MOVLW  1F
03A7A:  MOVWF  05
....................                   
....................                  glcd_rect(20,18,40,32,YES,OFF); 
03A7C:  MOVLW  14
03A7E:  MOVLB  2
03A80:  MOVWF  x7B
03A82:  MOVLW  12
03A84:  MOVWF  x7C
03A86:  MOVLW  28
03A88:  MOVWF  x7D
03A8A:  MOVLW  20
03A8C:  MOVWF  x7E
03A8E:  MOVLW  01
03A90:  MOVWF  x7F
03A92:  CLRF   x80
03A94:  MOVLB  0
03A96:  CALL   0EE8
....................                  sprintf(Pgeneral,"%02d", dayset); 
03A9A:  MOVLB  2
03A9C:  CLRF   x78
03A9E:  MOVLW  2E
03AA0:  MOVWF  x77
03AA2:  MOVFF  05,27B
03AA6:  MOVLW  01
03AA8:  MOVWF  x7C
03AAA:  MOVLB  0
03AAC:  CALL   1402
....................                  glcd_text57(20,18,Pgeneral, 2, 1); 
03AB0:  MOVLW  14
03AB2:  MOVLB  2
03AB4:  MOVWF  x7B
03AB6:  MOVLW  12
03AB8:  MOVWF  x7C
03ABA:  CLRF   x7E
03ABC:  MOVLW  2E
03ABE:  MOVWF  x7D
03AC0:  MOVLW  02
03AC2:  MOVWF  x7F
03AC4:  MOVLW  01
03AC6:  MOVWF  x80
03AC8:  MOVLB  0
03ACA:  CALL   0FAA
....................                  delay_ms(100); 
03ACE:  MOVLW  64
03AD0:  MOVLB  2
03AD2:  MOVWF  x84
03AD4:  MOVLB  0
03AD6:  CALL   0D82
....................                  goto START8; 
03ADA:  BRA    3942
....................              } 
....................               
....................              else if(s > 165 &&  s < 185){ 
03ADC:  BRA    3F7E
03ADE:  MOVF   04,W
03AE0:  SUBLW  A5
03AE2:  BTFSC  FD8.0
03AE4:  BRA    3F7C
03AE6:  MOVF   04,W
03AE8:  SUBLW  B8
03AEA:  BTFSS  FD8.0
03AEC:  BRA    3F7C
....................                   
....................              START9:  
....................              glcd_rect(20,34,40,35,YES,OFF); 
03AEE:  MOVLW  14
03AF0:  MOVLB  2
03AF2:  MOVWF  x7B
03AF4:  MOVLW  22
03AF6:  MOVWF  x7C
03AF8:  MOVLW  28
03AFA:  MOVWF  x7D
03AFC:  MOVLW  23
03AFE:  MOVWF  x7E
03B00:  MOVLW  01
03B02:  MOVWF  x7F
03B04:  CLRF   x80
03B06:  MOVLB  0
03B08:  CALL   0EE8
....................              glcd_rect(52,34,73,35,YES,ON); 
03B0C:  MOVLW  34
03B0E:  MOVLB  2
03B10:  MOVWF  x7B
03B12:  MOVLW  22
03B14:  MOVWF  x7C
03B16:  MOVLW  49
03B18:  MOVWF  x7D
03B1A:  MOVLW  23
03B1C:  MOVWF  x7E
03B1E:  MOVLW  01
03B20:  MOVWF  x7F
03B22:  MOVWF  x80
03B24:  MOVLB  0
03B26:  CALL   0EE8
....................              glcd_rect(85,34,107,35,YES,OFF); 
03B2A:  MOVLW  55
03B2C:  MOVLB  2
03B2E:  MOVWF  x7B
03B30:  MOVLW  22
03B32:  MOVWF  x7C
03B34:  MOVLW  6B
03B36:  MOVWF  x7D
03B38:  MOVLW  23
03B3A:  MOVWF  x7E
03B3C:  MOVLW  01
03B3E:  MOVWF  x7F
03B40:  CLRF   x80
03B42:  MOVLB  0
03B44:  CALL   0EE8
....................              glcd_rect(9,41,118,57,NO,ON); 
03B48:  MOVLW  09
03B4A:  MOVLB  2
03B4C:  MOVWF  x7B
03B4E:  MOVLW  29
03B50:  MOVWF  x7C
03B52:  MOVLW  76
03B54:  MOVWF  x7D
03B56:  MOVLW  39
03B58:  MOVWF  x7E
03B5A:  CLRF   x7F
03B5C:  MOVLW  01
03B5E:  MOVWF  x80
03B60:  MOVLB  0
03B62:  CALL   0EE8
....................              delay_ms(200); 
03B66:  MOVLW  C8
03B68:  MOVLB  2
03B6A:  MOVWF  x84
03B6C:  MOVLB  0
03B6E:  CALL   0D82
....................              s = read_adc();     
03B72:  BSF    FC2.1
03B74:  BTFSC  FC2.1
03B76:  BRA    3B74
03B78:  MOVFF  FC4,04
....................              delay_ms(50); 
03B7C:  MOVLW  32
03B7E:  MOVLB  2
03B80:  MOVWF  x84
03B82:  MOVLB  0
03B84:  CALL   0D82
....................              while(s>230){ 
03B88:  MOVF   04,W
03B8A:  SUBLW  E6
03B8C:  BC    3BA6
....................                    s = read_adc();     
03B8E:  BSF    FC2.1
03B90:  BTFSC  FC2.1
03B92:  BRA    3B90
03B94:  MOVFF  FC4,04
....................                    delay_ms(50); 
03B98:  MOVLW  32
03B9A:  MOVLB  2
03B9C:  MOVWF  x84
03B9E:  MOVLB  0
03BA0:  CALL   0D82
....................                    } 
03BA4:  BRA    3B88
....................              if (s > 10 && s < 40){ 
03BA6:  MOVF   04,W
03BA8:  SUBLW  0A
03BAA:  BC    3C1E
03BAC:  MOVF   04,W
03BAE:  SUBLW  27
03BB0:  BNC   3C1E
....................                  monthset ++; 
03BB2:  INCF   06,F
....................                  if(monthset > 12) 
03BB4:  MOVF   06,W
03BB6:  SUBLW  0C
03BB8:  BC    3BBE
....................                      monthset = 1; 
03BBA:  MOVLW  01
03BBC:  MOVWF  06
....................                   
....................                  glcd_rect(52,18,74,32,YES,OFF); 
03BBE:  MOVLW  34
03BC0:  MOVLB  2
03BC2:  MOVWF  x7B
03BC4:  MOVLW  12
03BC6:  MOVWF  x7C
03BC8:  MOVLW  4A
03BCA:  MOVWF  x7D
03BCC:  MOVLW  20
03BCE:  MOVWF  x7E
03BD0:  MOVLW  01
03BD2:  MOVWF  x7F
03BD4:  CLRF   x80
03BD6:  MOVLB  0
03BD8:  CALL   0EE8
....................                  sprintf(Pgeneral,"%02d", monthset); 
03BDC:  MOVLB  2
03BDE:  CLRF   x78
03BE0:  MOVLW  2E
03BE2:  MOVWF  x77
03BE4:  MOVFF  06,27B
03BE8:  MOVLW  01
03BEA:  MOVWF  x7C
03BEC:  MOVLB  0
03BEE:  CALL   1402
....................                  glcd_text57(52,18,Pgeneral, 2, 1); 
03BF2:  MOVLW  34
03BF4:  MOVLB  2
03BF6:  MOVWF  x7B
03BF8:  MOVLW  12
03BFA:  MOVWF  x7C
03BFC:  CLRF   x7E
03BFE:  MOVLW  2E
03C00:  MOVWF  x7D
03C02:  MOVLW  02
03C04:  MOVWF  x7F
03C06:  MOVLW  01
03C08:  MOVWF  x80
03C0A:  MOVLB  0
03C0C:  CALL   0FAA
....................                  delay_ms(200); 
03C10:  MOVLW  C8
03C12:  MOVLB  2
03C14:  MOVWF  x84
03C16:  MOVLB  0
03C18:  CALL   0D82
....................                  goto START9; 
03C1C:  BRA    3AEE
....................              } 
....................               if(s > 60 && s < 90){ 
03C1E:  MOVF   04,W
03C20:  SUBLW  3C
03C22:  BC    3C94
03C24:  MOVF   04,W
03C26:  SUBLW  59
03C28:  BNC   3C94
....................                   
....................                  monthset --; 
03C2A:  DECF   06,F
....................                  if(monthset == 0 ) 
03C2C:  MOVF   06,F
03C2E:  BNZ   3C34
....................                      monthset = 12; 
03C30:  MOVLW  0C
03C32:  MOVWF  06
....................                  glcd_rect(52,18,74,32,YES,OFF); 
03C34:  MOVLW  34
03C36:  MOVLB  2
03C38:  MOVWF  x7B
03C3A:  MOVLW  12
03C3C:  MOVWF  x7C
03C3E:  MOVLW  4A
03C40:  MOVWF  x7D
03C42:  MOVLW  20
03C44:  MOVWF  x7E
03C46:  MOVLW  01
03C48:  MOVWF  x7F
03C4A:  CLRF   x80
03C4C:  MOVLB  0
03C4E:  CALL   0EE8
....................                  sprintf(Pgeneral,"%02d", monthset); 
03C52:  MOVLB  2
03C54:  CLRF   x78
03C56:  MOVLW  2E
03C58:  MOVWF  x77
03C5A:  MOVFF  06,27B
03C5E:  MOVLW  01
03C60:  MOVWF  x7C
03C62:  MOVLB  0
03C64:  CALL   1402
....................                  glcd_text57(52,18,Pgeneral, 2, 1); 
03C68:  MOVLW  34
03C6A:  MOVLB  2
03C6C:  MOVWF  x7B
03C6E:  MOVLW  12
03C70:  MOVWF  x7C
03C72:  CLRF   x7E
03C74:  MOVLW  2E
03C76:  MOVWF  x7D
03C78:  MOVLW  02
03C7A:  MOVWF  x7F
03C7C:  MOVLW  01
03C7E:  MOVWF  x80
03C80:  MOVLB  0
03C82:  CALL   0FAA
....................                  delay_ms(100); 
03C86:  MOVLW  64
03C88:  MOVLB  2
03C8A:  MOVWF  x84
03C8C:  MOVLB  0
03C8E:  CALL   0D82
....................                  goto START9; 
03C92:  BRA    3AEE
....................              }  
....................               if (s > 115 && s < 135){ 
03C94:  MOVF   04,W
03C96:  SUBLW  73
03C98:  BC    3D26
03C9A:  MOVF   04,W
03C9C:  SUBLW  86
03C9E:  BNC   3D26
....................                   
....................                  glcd_rect(20,34,40,35,YES,ON); 
03CA0:  MOVLW  14
03CA2:  MOVLB  2
03CA4:  MOVWF  x7B
03CA6:  MOVLW  22
03CA8:  MOVWF  x7C
03CAA:  MOVLW  28
03CAC:  MOVWF  x7D
03CAE:  MOVLW  23
03CB0:  MOVWF  x7E
03CB2:  MOVLW  01
03CB4:  MOVWF  x7F
03CB6:  MOVWF  x80
03CB8:  MOVLB  0
03CBA:  CALL   0EE8
....................                  glcd_rect(52,34,73,35,YES,OFF); 
03CBE:  MOVLW  34
03CC0:  MOVLB  2
03CC2:  MOVWF  x7B
03CC4:  MOVLW  22
03CC6:  MOVWF  x7C
03CC8:  MOVLW  49
03CCA:  MOVWF  x7D
03CCC:  MOVLW  23
03CCE:  MOVWF  x7E
03CD0:  MOVLW  01
03CD2:  MOVWF  x7F
03CD4:  CLRF   x80
03CD6:  MOVLB  0
03CD8:  CALL   0EE8
....................                  glcd_rect(85,34,107,35,YES,OFF); 
03CDC:  MOVLW  55
03CDE:  MOVLB  2
03CE0:  MOVWF  x7B
03CE2:  MOVLW  22
03CE4:  MOVWF  x7C
03CE6:  MOVLW  6B
03CE8:  MOVWF  x7D
03CEA:  MOVLW  23
03CEC:  MOVWF  x7E
03CEE:  MOVLW  01
03CF0:  MOVWF  x7F
03CF2:  CLRF   x80
03CF4:  MOVLB  0
03CF6:  CALL   0EE8
....................                  glcd_rect(9,41,118,57,NO,ON); 
03CFA:  MOVLW  09
03CFC:  MOVLB  2
03CFE:  MOVWF  x7B
03D00:  MOVLW  29
03D02:  MOVWF  x7C
03D04:  MOVLW  76
03D06:  MOVWF  x7D
03D08:  MOVLW  39
03D0A:  MOVWF  x7E
03D0C:  CLRF   x7F
03D0E:  MOVLW  01
03D10:  MOVWF  x80
03D12:  MOVLB  0
03D14:  CALL   0EE8
....................                  delay_ms(200); 
03D18:  MOVLW  C8
03D1A:  MOVLB  2
03D1C:  MOVWF  x84
03D1E:  MOVLB  0
03D20:  CALL   0D82
....................                  goto START8; 
03D24:  BRA    3942
....................              } 
....................               if(s > 165 &&  s < 185){ 
03D26:  MOVF   04,W
03D28:  SUBLW  A5
03D2A:  BTFSC  FD8.0
03D2C:  BRA    3F7A
03D2E:  MOVF   04,W
03D30:  SUBLW  B8
03D32:  BTFSS  FD8.0
03D34:  BRA    3F7A
....................                  START10: 
....................                   
....................                  glcd_rect(20,34,40,35,YES,OFF); 
03D36:  MOVLW  14
03D38:  MOVLB  2
03D3A:  MOVWF  x7B
03D3C:  MOVLW  22
03D3E:  MOVWF  x7C
03D40:  MOVLW  28
03D42:  MOVWF  x7D
03D44:  MOVLW  23
03D46:  MOVWF  x7E
03D48:  MOVLW  01
03D4A:  MOVWF  x7F
03D4C:  CLRF   x80
03D4E:  MOVLB  0
03D50:  CALL   0EE8
....................                  glcd_rect(52,34,73,35,YES,OFF);  
03D54:  MOVLW  34
03D56:  MOVLB  2
03D58:  MOVWF  x7B
03D5A:  MOVLW  22
03D5C:  MOVWF  x7C
03D5E:  MOVLW  49
03D60:  MOVWF  x7D
03D62:  MOVLW  23
03D64:  MOVWF  x7E
03D66:  MOVLW  01
03D68:  MOVWF  x7F
03D6A:  CLRF   x80
03D6C:  MOVLB  0
03D6E:  CALL   0EE8
....................                  glcd_rect(85,34,107,35,YES,ON); 
03D72:  MOVLW  55
03D74:  MOVLB  2
03D76:  MOVWF  x7B
03D78:  MOVLW  22
03D7A:  MOVWF  x7C
03D7C:  MOVLW  6B
03D7E:  MOVWF  x7D
03D80:  MOVLW  23
03D82:  MOVWF  x7E
03D84:  MOVLW  01
03D86:  MOVWF  x7F
03D88:  MOVWF  x80
03D8A:  MOVLB  0
03D8C:  CALL   0EE8
....................                  glcd_rect(9,41,118,57,NO,ON); 
03D90:  MOVLW  09
03D92:  MOVLB  2
03D94:  MOVWF  x7B
03D96:  MOVLW  29
03D98:  MOVWF  x7C
03D9A:  MOVLW  76
03D9C:  MOVWF  x7D
03D9E:  MOVLW  39
03DA0:  MOVWF  x7E
03DA2:  CLRF   x7F
03DA4:  MOVLW  01
03DA6:  MOVWF  x80
03DA8:  MOVLB  0
03DAA:  CALL   0EE8
....................                   
....................                  delay_ms(200); 
03DAE:  MOVLW  C8
03DB0:  MOVLB  2
03DB2:  MOVWF  x84
03DB4:  MOVLB  0
03DB6:  CALL   0D82
....................                  s = read_adc();     
03DBA:  BSF    FC2.1
03DBC:  BTFSC  FC2.1
03DBE:  BRA    3DBC
03DC0:  MOVFF  FC4,04
....................                  delay_ms(50); 
03DC4:  MOVLW  32
03DC6:  MOVLB  2
03DC8:  MOVWF  x84
03DCA:  MOVLB  0
03DCC:  CALL   0D82
....................                  while(s>230){ 
03DD0:  MOVF   04,W
03DD2:  SUBLW  E6
03DD4:  BC    3DEE
....................                    s = read_adc();     
03DD6:  BSF    FC2.1
03DD8:  BTFSC  FC2.1
03DDA:  BRA    3DD8
03DDC:  MOVFF  FC4,04
....................                    delay_ms(50); 
03DE0:  MOVLW  32
03DE2:  MOVLB  2
03DE4:  MOVWF  x84
03DE6:  MOVLB  0
03DE8:  CALL   0D82
....................                    } 
03DEC:  BRA    3DD0
....................                   if (s > 10 && s < 40){ 
03DEE:  MOVF   04,W
03DF0:  SUBLW  0A
03DF2:  BC    3E5A
03DF4:  MOVF   04,W
03DF6:  SUBLW  27
03DF8:  BNC   3E5A
....................                       yrset++; 
03DFA:  INCF   07,F
....................                       if(yrset > 80) 
03DFC:  MOVF   07,W
03DFE:  SUBLW  50
03E00:  BC    3E06
....................                           yrset = 2; 
03E02:  MOVLW  02
03E04:  MOVWF  07
....................                       glcd_rect(85,18,107,32,YES,OFF); 
03E06:  MOVLW  55
03E08:  MOVLB  2
03E0A:  MOVWF  x7B
03E0C:  MOVLW  12
03E0E:  MOVWF  x7C
03E10:  MOVLW  6B
03E12:  MOVWF  x7D
03E14:  MOVLW  20
03E16:  MOVWF  x7E
03E18:  MOVLW  01
03E1A:  MOVWF  x7F
03E1C:  CLRF   x80
03E1E:  MOVLB  0
03E20:  CALL   0EE8
....................                       sprintf(Pgeneral,"%02d", yrset); 
03E24:  MOVLB  2
03E26:  CLRF   x78
03E28:  MOVLW  2E
03E2A:  MOVWF  x77
03E2C:  MOVFF  07,27B
03E30:  MOVLW  01
03E32:  MOVWF  x7C
03E34:  MOVLB  0
03E36:  CALL   1402
....................                       glcd_text57(87,18,Pgeneral, 2, 1); 
03E3A:  MOVLW  57
03E3C:  MOVLB  2
03E3E:  MOVWF  x7B
03E40:  MOVLW  12
03E42:  MOVWF  x7C
03E44:  CLRF   x7E
03E46:  MOVLW  2E
03E48:  MOVWF  x7D
03E4A:  MOVLW  02
03E4C:  MOVWF  x7F
03E4E:  MOVLW  01
03E50:  MOVWF  x80
03E52:  MOVLB  0
03E54:  CALL   0FAA
....................                      goto START10; 
03E58:  BRA    3D36
....................                   } 
....................                   
....................                    if (s > 60 && s < 90){ 
03E5A:  MOVF   04,W
03E5C:  SUBLW  3C
03E5E:  BC    3EC6
03E60:  MOVF   04,W
03E62:  SUBLW  59
03E64:  BNC   3EC6
....................                      yrset--; 
03E66:  DECF   07,F
....................                       if(yrset < 2) 
03E68:  MOVF   07,W
03E6A:  SUBLW  01
03E6C:  BNC   3E72
....................                           yrset = 80; 
03E6E:  MOVLW  50
03E70:  MOVWF  07
....................                       glcd_rect(85,18,107,32,YES,OFF); 
03E72:  MOVLW  55
03E74:  MOVLB  2
03E76:  MOVWF  x7B
03E78:  MOVLW  12
03E7A:  MOVWF  x7C
03E7C:  MOVLW  6B
03E7E:  MOVWF  x7D
03E80:  MOVLW  20
03E82:  MOVWF  x7E
03E84:  MOVLW  01
03E86:  MOVWF  x7F
03E88:  CLRF   x80
03E8A:  MOVLB  0
03E8C:  CALL   0EE8
....................                       sprintf(Pgeneral,"%02d", yrset); 
03E90:  MOVLB  2
03E92:  CLRF   x78
03E94:  MOVLW  2E
03E96:  MOVWF  x77
03E98:  MOVFF  07,27B
03E9C:  MOVLW  01
03E9E:  MOVWF  x7C
03EA0:  MOVLB  0
03EA2:  CALL   1402
....................                       glcd_text57(87,18,Pgeneral, 2, 1); 
03EA6:  MOVLW  57
03EA8:  MOVLB  2
03EAA:  MOVWF  x7B
03EAC:  MOVLW  12
03EAE:  MOVWF  x7C
03EB0:  CLRF   x7E
03EB2:  MOVLW  2E
03EB4:  MOVWF  x7D
03EB6:  MOVLW  02
03EB8:  MOVWF  x7F
03EBA:  MOVLW  01
03EBC:  MOVWF  x80
03EBE:  MOVLB  0
03EC0:  CALL   0FAA
....................                      goto START10; 
03EC4:  BRA    3D36
....................                   } 
....................                   if (s > 115 && s < 135) 
03EC6:  MOVF   04,W
03EC8:  SUBLW  73
03ECA:  BC    3ED4
03ECC:  MOVF   04,W
03ECE:  SUBLW  86
03ED0:  BNC   3ED4
....................                     goto START9; 
03ED2:  BRA    3AEE
....................                   
....................                  if(s > 165 &&  s < 185){ 
03ED4:  MOVF   04,W
03ED6:  SUBLW  A5
03ED8:  BC    3F78
03EDA:  MOVF   04,W
03EDC:  SUBLW  B8
03EDE:  BNC   3F78
....................                     glcd_rect(85,34,107,35,YES,OFF);  
03EE0:  MOVLW  55
03EE2:  MOVLB  2
03EE4:  MOVWF  x7B
03EE6:  MOVLW  22
03EE8:  MOVWF  x7C
03EEA:  MOVLW  6B
03EEC:  MOVWF  x7D
03EEE:  MOVLW  23
03EF0:  MOVWF  x7E
03EF2:  MOVLW  01
03EF4:  MOVWF  x7F
03EF6:  CLRF   x80
03EF8:  MOVLB  0
03EFA:  CALL   0EE8
....................                     glcd_rect(9,41,118,57,NO,OFF); 
03EFE:  MOVLW  09
03F00:  MOVLB  2
03F02:  MOVWF  x7B
03F04:  MOVLW  29
03F06:  MOVWF  x7C
03F08:  MOVLW  76
03F0A:  MOVWF  x7D
03F0C:  MOVLW  39
03F0E:  MOVWF  x7E
03F10:  CLRF   x7F
03F12:  CLRF   x80
03F14:  MOVLB  0
03F16:  CALL   0EE8
....................                     START11: 
....................                     delay_ms(200); 
03F1A:  MOVLW  C8
03F1C:  MOVLB  2
03F1E:  MOVWF  x84
03F20:  MOVLB  0
03F22:  CALL   0D82
....................                     s = read_adc();     
03F26:  BSF    FC2.1
03F28:  BTFSC  FC2.1
03F2A:  BRA    3F28
03F2C:  MOVFF  FC4,04
....................                     delay_ms(50); 
03F30:  MOVLW  32
03F32:  MOVLB  2
03F34:  MOVWF  x84
03F36:  MOVLB  0
03F38:  CALL   0D82
....................                     while(s>230){ 
03F3C:  MOVF   04,W
03F3E:  SUBLW  E6
03F40:  BC    3F5A
....................                        s = read_adc();     
03F42:  BSF    FC2.1
03F44:  BTFSC  FC2.1
03F46:  BRA    3F44
03F48:  MOVFF  FC4,04
....................                        delay_ms(50); 
03F4C:  MOVLW  32
03F4E:  MOVLB  2
03F50:  MOVWF  x84
03F52:  MOVLB  0
03F54:  CALL   0D82
....................                     } 
03F58:  BRA    3F3C
....................                     if(s > 195 && s < 225) 
03F5A:  MOVF   04,W
03F5C:  SUBLW  C3
03F5E:  BC    3F68
03F60:  MOVF   04,W
03F62:  SUBLW  E0
03F64:  BNC   3F68
....................                         goto SET_RTC; 
03F66:  BRA    3F80
....................                     if(s > 115 && s < 135) 
03F68:  MOVF   04,W
03F6A:  SUBLW  73
03F6C:  BC    3F76
03F6E:  MOVF   04,W
03F70:  SUBLW  86
03F72:  BNC   3F76
....................                         goto START10; 
03F74:  BRA    3D36
....................                  } 
....................                  else 
03F76:  BRA    3F7A
....................                      goto START11; 
03F78:  BRA    3F1A
....................              }   
....................           } 
....................              else  
03F7A:  BRA    3F7E
....................                  goto START8; 
03F7C:  BRA    3942
....................              goto START8; 
03F7E:  BRA    3942
....................               
.................... //////////////////////////////////////--------------------------------------------------------------------"""""""""""""""""""""""""""""""""""""" 
....................       
....................      SET_RTC: 
....................         ds1307_set_date_time(dayset,monthset,yrset,dow,hrset,time,minset,0); 
03F80:  MOVFF  05,27B
03F84:  MOVFF  06,27C
03F88:  MOVFF  07,27D
03F8C:  MOVFF  10,27E
03F90:  MOVFF  08,27F
03F94:  MOVFF  2B,280
03F98:  MOVFF  09,281
03F9C:  MOVLB  2
03F9E:  CLRF   x82
03FA0:  MOVLB  0
03FA2:  GOTO   1508
....................         glcd_fillScreen(0); 
03FA6:  MOVLB  2
03FA8:  CLRF   x7C
03FAA:  MOVLB  0
03FAC:  CALL   0A62
....................         glcd_text57(22,3,AJUSTEFECHA, 1, 1); 
03FB0:  MOVLW  16
03FB2:  MOVLB  2
03FB4:  MOVWF  x7B
03FB6:  MOVLW  03
03FB8:  MOVWF  x7C
03FBA:  MOVLW  01
03FBC:  MOVWF  x7E
03FBE:  MOVLW  94
03FC0:  MOVWF  x7D
03FC2:  MOVLW  01
03FC4:  MOVWF  x7F
03FC6:  MOVWF  x80
03FC8:  MOVLB  0
03FCA:  CALL   0FAA
....................         glcd_finalizado(); 
03FCE:  CALL   15D6
....................         glcd_text57(45,25,DATOS, 1, 1); 
03FD2:  MOVLW  2D
03FD4:  MOVLB  2
03FD6:  MOVWF  x7B
03FD8:  MOVLW  19
03FDA:  MOVWF  x7C
03FDC:  MOVLW  01
03FDE:  MOVWF  x7E
03FE0:  MOVLW  B9
03FE2:  MOVWF  x7D
03FE4:  MOVLW  01
03FE6:  MOVWF  x7F
03FE8:  MOVWF  x80
03FEA:  MOVLB  0
03FEC:  CALL   0FAA
....................         glcd_text57(45,35,DATOS2, 1, 1); 
03FF0:  MOVLW  2D
03FF2:  MOVLB  2
03FF4:  MOVWF  x7B
03FF6:  MOVLW  23
03FF8:  MOVWF  x7C
03FFA:  MOVLW  01
03FFC:  MOVWF  x7E
03FFE:  MOVLW  BF
04000:  MOVWF  x7D
04002:  MOVLW  01
04004:  MOVWF  x7F
04006:  MOVWF  x80
04008:  MOVLB  0
0400A:  CALL   0FAA
....................         delay_ms(3000); 
0400E:  MOVLW  0C
04010:  MOVLB  2
04012:  MOVWF  x7B
04014:  MOVLW  FA
04016:  MOVWF  x84
04018:  MOVLB  0
0401A:  CALL   0D82
0401E:  MOVLB  2
04020:  DECFSZ x7B,F
04022:  BRA    4014
....................         
....................         goto CONF_RTC; 
04024:  GOTO   2A94
04028:  MOVLB  0
....................  
....................   CONF_TEMP: 
....................         //temp= 36.0; 
....................         temp = ds1820_read();  //funcion 
0402A:  CALL   18FE
0402E:  MOVFF  03,2A
04032:  MOVFF  02,29
04036:  MOVFF  01,28
0403A:  MOVFF  00,27
....................         temp = temp/8; 
0403E:  MOVFF  2A,28B
04042:  MOVFF  29,28A
04046:  MOVFF  28,289
0404A:  MOVFF  27,288
0404E:  MOVLB  2
04050:  CLRF   x8F
04052:  CLRF   x8E
04054:  CLRF   x8D
04056:  MOVLW  82
04058:  MOVWF  x8C
0405A:  MOVLB  0
0405C:  CALL   17A0
04060:  MOVFF  03,2A
04064:  MOVFF  02,29
04068:  MOVFF  01,28
0406C:  MOVFF  00,27
....................    
....................        glcd_fillScreen(0); 
04070:  MOVLB  2
04072:  CLRF   x7C
04074:  MOVLB  0
04076:  CALL   0A62
....................        glcd_rect(0,0,127,63,NO,ON); 
0407A:  MOVLB  2
0407C:  CLRF   x7B
0407E:  CLRF   x7C
04080:  MOVLW  7F
04082:  MOVWF  x7D
04084:  MOVLW  3F
04086:  MOVWF  x7E
04088:  CLRF   x7F
0408A:  MOVLW  01
0408C:  MOVWF  x80
0408E:  MOVLB  0
04090:  CALL   0EE8
....................        glcd_rect(1,1,126,62,NO,ON); 
04094:  MOVLW  01
04096:  MOVLB  2
04098:  MOVWF  x7B
0409A:  MOVWF  x7C
0409C:  MOVLW  7E
0409E:  MOVWF  x7D
040A0:  MOVLW  3E
040A2:  MOVWF  x7E
040A4:  CLRF   x7F
040A6:  MOVLW  01
040A8:  MOVWF  x80
040AA:  MOVLB  0
040AC:  CALL   0EE8
....................        glcd_text57(22,5,TEMPACTUAL, 1, 1); 
040B0:  MOVLW  16
040B2:  MOVLB  2
040B4:  MOVWF  x7B
040B6:  MOVLW  05
040B8:  MOVWF  x7C
040BA:  MOVLW  01
040BC:  MOVWF  x7E
040BE:  MOVLW  CA
040C0:  MOVWF  x7D
040C2:  MOVLW  01
040C4:  MOVWF  x7F
040C6:  MOVWF  x80
040C8:  MOVLB  0
040CA:  CALL   0FAA
....................        sprintf(Pgeneral6,"%.1f C",temp); 
040CE:  MOVLB  2
040D0:  CLRF   x78
040D2:  MOVLW  42
040D4:  MOVWF  x77
040D6:  MOVLW  89
040D8:  MOVWF  FE9
040DA:  MOVFF  2A,27E
040DE:  MOVFF  29,27D
040E2:  MOVFF  28,27C
040E6:  MOVFF  27,27B
040EA:  MOVLW  01
040EC:  MOVWF  x7F
040EE:  MOVLB  0
040F0:  CALL   1B7A
040F4:  MOVLW  20
040F6:  MOVLB  2
040F8:  MOVWF  x88
040FA:  MOVLB  0
040FC:  CALL   13E2
04100:  MOVLW  B0
04102:  MOVLB  2
04104:  MOVWF  x88
04106:  MOVLB  0
04108:  CALL   13E2
0410C:  MOVLW  43
0410E:  MOVLB  2
04110:  MOVWF  x88
04112:  MOVLB  0
04114:  CALL   13E2
....................        glcd_text57(20,18,Pgeneral6, 2, 1); 
04118:  MOVLW  14
0411A:  MOVLB  2
0411C:  MOVWF  x7B
0411E:  MOVLW  12
04120:  MOVWF  x7C
04122:  CLRF   x7E
04124:  MOVLW  42
04126:  MOVWF  x7D
04128:  MOVLW  02
0412A:  MOVWF  x7F
0412C:  MOVLW  01
0412E:  MOVWF  x80
04130:  MOVLB  0
04132:  CALL   0FAA
....................         
....................       glcd_rect(8,37,43,58,YES,ON); 
04136:  MOVLW  08
04138:  MOVLB  2
0413A:  MOVWF  x7B
0413C:  MOVLW  25
0413E:  MOVWF  x7C
04140:  MOVLW  2B
04142:  MOVWF  x7D
04144:  MOVLW  3A
04146:  MOVWF  x7E
04148:  MOVLW  01
0414A:  MOVWF  x7F
0414C:  MOVWF  x80
0414E:  MOVLB  0
04150:  CALL   0EE8
....................       glcd_rect(46,37,81,58,YES,ON); 
04154:  MOVLW  2E
04156:  MOVLB  2
04158:  MOVWF  x7B
0415A:  MOVLW  25
0415C:  MOVWF  x7C
0415E:  MOVLW  51
04160:  MOVWF  x7D
04162:  MOVLW  3A
04164:  MOVWF  x7E
04166:  MOVLW  01
04168:  MOVWF  x7F
0416A:  MOVWF  x80
0416C:  MOVLB  0
0416E:  CALL   0EE8
....................       glcd_rect(84,37,119,58,YES,ON); 
04172:  MOVLW  54
04174:  MOVLB  2
04176:  MOVWF  x7B
04178:  MOVLW  25
0417A:  MOVWF  x7C
0417C:  MOVLW  77
0417E:  MOVWF  x7D
04180:  MOVLW  3A
04182:  MOVWF  x7E
04184:  MOVLW  01
04186:  MOVWF  x7F
04188:  MOVWF  x80
0418A:  MOVLB  0
0418C:  CALL   0EE8
....................     
....................       glcd_rect(9,38,42,57,NO,OFF); 
04190:  MOVLW  09
04192:  MOVLB  2
04194:  MOVWF  x7B
04196:  MOVLW  26
04198:  MOVWF  x7C
0419A:  MOVLW  2A
0419C:  MOVWF  x7D
0419E:  MOVLW  39
041A0:  MOVWF  x7E
041A2:  CLRF   x7F
041A4:  CLRF   x80
041A6:  MOVLB  0
041A8:  CALL   0EE8
....................  
....................       glcd_text57(14,45,MINI, 1, 0);   
041AC:  MOVLW  0E
041AE:  MOVLB  2
041B0:  MOVWF  x7B
041B2:  MOVLW  2D
041B4:  MOVWF  x7C
041B6:  MOVLW  01
041B8:  MOVWF  x7E
041BA:  MOVLW  D6
041BC:  MOVWF  x7D
041BE:  MOVLW  01
041C0:  MOVWF  x7F
041C2:  CLRF   x80
041C4:  MOVLB  0
041C6:  CALL   0FAA
....................       glcd_text57(49,45,MAX, 1, 0);  
041CA:  MOVLW  31
041CC:  MOVLB  2
041CE:  MOVWF  x7B
041D0:  MOVLW  2D
041D2:  MOVWF  x7C
041D4:  MOVLW  01
041D6:  MOVWF  x7E
041D8:  MOVLW  DA
041DA:  MOVWF  x7D
041DC:  MOVLW  01
041DE:  MOVWF  x7F
041E0:  CLRF   x80
041E2:  MOVLB  0
041E4:  CALL   0FAA
....................       glcd_text57(86,45,SALIR,1,0); 
041E8:  MOVLW  56
041EA:  MOVLB  2
041EC:  MOVWF  x7B
041EE:  MOVLW  2D
041F0:  MOVWF  x7C
041F2:  MOVLW  01
041F4:  MOVWF  x7E
041F6:  MOVLW  7F
041F8:  MOVWF  x7D
041FA:  MOVLW  01
041FC:  MOVWF  x7F
041FE:  CLRF   x80
04200:  MOVLB  0
04202:  CALL   0FAA
....................     
....................  
....................     TEMP1: 
....................      
....................       s = read_adc(); 
04206:  BSF    FC2.1
04208:  BTFSC  FC2.1
0420A:  BRA    4208
0420C:  MOVFF  FC4,04
....................    delay_ms(100); //*************************** 
04210:  MOVLW  64
04212:  MOVLB  2
04214:  MOVWF  x84
04216:  MOVLB  0
04218:  CALL   0D82
....................     
....................    while(s > 240){ 
0421C:  MOVF   04,W
0421E:  SUBLW  F0
04220:  BC    423A
....................     s = read_adc(); 
04222:  BSF    FC2.1
04224:  BTFSC  FC2.1
04226:  BRA    4224
04228:  MOVFF  FC4,04
....................     delay_ms(50); 
0422C:  MOVLW  32
0422E:  MOVLB  2
04230:  MOVWF  x84
04232:  MOVLB  0
04234:  CALL   0D82
....................    } 
04238:  BRA    421C
....................    if(s > 195 && s < 225) //enter 
0423A:  MOVF   04,W
0423C:  SUBLW  C3
0423E:  BC    424A
04240:  MOVF   04,W
04242:  SUBLW  E0
04244:  BNC   424A
....................        goto CONF_MINI; //entra a la configuracion de hora/temperatura/riego 
04246:  BRA    4458
....................        
....................    else if (s > 165 &&  s < 185){  // pulsa la tecla derecha  
04248:  BRA    4454
0424A:  MOVF   04,W
0424C:  SUBLW  A5
0424E:  BTFSC  FD8.0
04250:  BRA    4454
04252:  MOVF   04,W
04254:  SUBLW  B8
04256:  BTFSS  FD8.0
04258:  BRA    4454
....................        Returno: 
....................        glcd_rect(9,38,42,57,NO,ON); 
0425A:  MOVLW  09
0425C:  MOVLB  2
0425E:  MOVWF  x7B
04260:  MOVLW  26
04262:  MOVWF  x7C
04264:  MOVLW  2A
04266:  MOVWF  x7D
04268:  MOVLW  39
0426A:  MOVWF  x7E
0426C:  CLRF   x7F
0426E:  MOVLW  01
04270:  MOVWF  x80
04272:  MOVLB  0
04274:  CALL   0EE8
....................        glcd_rect(47,38,80,57,NO,OFF); 
04278:  MOVLW  2F
0427A:  MOVLB  2
0427C:  MOVWF  x7B
0427E:  MOVLW  26
04280:  MOVWF  x7C
04282:  MOVLW  50
04284:  MOVWF  x7D
04286:  MOVLW  39
04288:  MOVWF  x7E
0428A:  CLRF   x7F
0428C:  CLRF   x80
0428E:  MOVLB  0
04290:  CALL   0EE8
....................        glcd_rect(85,38,118,57,NO,ON); 
04294:  MOVLW  55
04296:  MOVLB  2
04298:  MOVWF  x7B
0429A:  MOVLW  26
0429C:  MOVWF  x7C
0429E:  MOVLW  76
042A0:  MOVWF  x7D
042A2:  MOVLW  39
042A4:  MOVWF  x7E
042A6:  CLRF   x7F
042A8:  MOVLW  01
042AA:  MOVWF  x80
042AC:  MOVLB  0
042AE:  CALL   0EE8
....................    
....................        delay_ms(100); 
042B2:  MOVLW  64
042B4:  MOVLB  2
042B6:  MOVWF  x84
042B8:  MOVLB  0
042BA:  CALL   0D82
....................        s = read_adc(); 
042BE:  BSF    FC2.1
042C0:  BTFSC  FC2.1
042C2:  BRA    42C0
042C4:  MOVFF  FC4,04
....................        delay_us(40); 
042C8:  MOVLW  1A
042CA:  MOVWF  00
042CC:  DECFSZ 00,F
042CE:  BRA    42CC
042D0:  NOP   
....................           while(s > 240){  // ha espera del nuevo enter  
042D2:  MOVF   04,W
042D4:  SUBLW  F0
042D6:  BC    42F0
....................             s = read_adc(); 
042D8:  BSF    FC2.1
042DA:  BTFSC  FC2.1
042DC:  BRA    42DA
042DE:  MOVFF  FC4,04
....................             delay_ms(50);//************************* 
042E2:  MOVLW  32
042E4:  MOVLB  2
042E6:  MOVWF  x84
042E8:  MOVLB  0
042EA:  CALL   0D82
....................             } 
042EE:  BRA    42D2
....................     if(s > 195 && s < 225) 
042F0:  MOVF   04,W
042F2:  SUBLW  C3
042F4:  BC    42FE
042F6:  MOVF   04,W
042F8:  SUBLW  E0
042FA:  BNC   42FE
....................            goto CONF_MAX; //enter cuando no se elige configurar el sistema  
042FC:  BRA    47B2
....................             
....................     if(s > 115 && s < 135){// pulsa la tecla izquierda 
042FE:  MOVF   04,W
04300:  SUBLW  73
04302:  BC    4372
04304:  MOVF   04,W
04306:  SUBLW  86
04308:  BNC   4372
....................            glcd_rect(9,38,42,57,NO,OFF); 
0430A:  MOVLW  09
0430C:  MOVLB  2
0430E:  MOVWF  x7B
04310:  MOVLW  26
04312:  MOVWF  x7C
04314:  MOVLW  2A
04316:  MOVWF  x7D
04318:  MOVLW  39
0431A:  MOVWF  x7E
0431C:  CLRF   x7F
0431E:  CLRF   x80
04320:  MOVLB  0
04322:  CALL   0EE8
....................            glcd_rect(47,38,80,57,NO,ON); 
04326:  MOVLW  2F
04328:  MOVLB  2
0432A:  MOVWF  x7B
0432C:  MOVLW  26
0432E:  MOVWF  x7C
04330:  MOVLW  50
04332:  MOVWF  x7D
04334:  MOVLW  39
04336:  MOVWF  x7E
04338:  CLRF   x7F
0433A:  MOVLW  01
0433C:  MOVWF  x80
0433E:  MOVLB  0
04340:  CALL   0EE8
....................            glcd_rect(85,38,118,57,NO,ON); 
04344:  MOVLW  55
04346:  MOVLB  2
04348:  MOVWF  x7B
0434A:  MOVLW  26
0434C:  MOVWF  x7C
0434E:  MOVLW  76
04350:  MOVWF  x7D
04352:  MOVLW  39
04354:  MOVWF  x7E
04356:  CLRF   x7F
04358:  MOVLW  01
0435A:  MOVWF  x80
0435C:  MOVLB  0
0435E:  CALL   0EE8
....................            delay_ms(50); 
04362:  MOVLW  32
04364:  MOVLB  2
04366:  MOVWF  x84
04368:  MOVLB  0
0436A:  CALL   0D82
....................            goto TEMP1; 
0436E:  BRA    4206
....................        }    
....................      else if(s > 165 &&  s < 185){ // derecha 
04370:  BRA    4454
04372:  MOVF   04,W
04374:  SUBLW  A5
04376:  BTFSC  FD8.0
04378:  BRA    4452
0437A:  MOVF   04,W
0437C:  SUBLW  B8
0437E:  BTFSS  FD8.0
04380:  BRA    4452
....................            RET: 
....................            glcd_rect(9,38,42,57,NO,ON); 
04382:  MOVLW  09
04384:  MOVLB  2
04386:  MOVWF  x7B
04388:  MOVLW  26
0438A:  MOVWF  x7C
0438C:  MOVLW  2A
0438E:  MOVWF  x7D
04390:  MOVLW  39
04392:  MOVWF  x7E
04394:  CLRF   x7F
04396:  MOVLW  01
04398:  MOVWF  x80
0439A:  MOVLB  0
0439C:  CALL   0EE8
....................            glcd_rect(47,38,80,57,NO,ON); 
043A0:  MOVLW  2F
043A2:  MOVLB  2
043A4:  MOVWF  x7B
043A6:  MOVLW  26
043A8:  MOVWF  x7C
043AA:  MOVLW  50
043AC:  MOVWF  x7D
043AE:  MOVLW  39
043B0:  MOVWF  x7E
043B2:  CLRF   x7F
043B4:  MOVLW  01
043B6:  MOVWF  x80
043B8:  MOVLB  0
043BA:  CALL   0EE8
....................            glcd_rect(85,38,118,57,NO,OFF); 
043BE:  MOVLW  55
043C0:  MOVLB  2
043C2:  MOVWF  x7B
043C4:  MOVLW  26
043C6:  MOVWF  x7C
043C8:  MOVLW  76
043CA:  MOVWF  x7D
043CC:  MOVLW  39
043CE:  MOVWF  x7E
043D0:  CLRF   x7F
043D2:  CLRF   x80
043D4:  MOVLB  0
043D6:  CALL   0EE8
....................            delay_ms(100); 
043DA:  MOVLW  64
043DC:  MOVLB  2
043DE:  MOVWF  x84
043E0:  MOVLB  0
043E2:  CALL   0D82
....................            s = read_adc(); 
043E6:  BSF    FC2.1
043E8:  BTFSC  FC2.1
043EA:  BRA    43E8
043EC:  MOVFF  FC4,04
....................            delay_us(40); 
043F0:  MOVLW  1A
043F2:  MOVWF  00
043F4:  DECFSZ 00,F
043F6:  BRA    43F4
043F8:  NOP   
....................            while(s > 240){ 
043FA:  MOVF   04,W
043FC:  SUBLW  F0
043FE:  BC    4418
....................            s = read_adc(); 
04400:  BSF    FC2.1
04402:  BTFSC  FC2.1
04404:  BRA    4402
04406:  MOVFF  FC4,04
....................            delay_ms(50);//** 
0440A:  MOVLW  32
0440C:  MOVLB  2
0440E:  MOVWF  x84
04410:  MOVLB  0
04412:  CALL   0D82
....................             } 
04416:  BRA    43FA
....................         if(s > 195 && s < 225) //enter 
04418:  MOVF   04,W
0441A:  SUBLW  C3
0441C:  BC    442E
0441E:  MOVF   04,W
04420:  SUBLW  E0
04422:  BNC   442E
....................            goto INICIO; 
04424:  MOVLB  2
04426:  GOTO   24DE
....................         else if(s > 115 && s < 135) 
0442A:  BRA    444E
0442C:  MOVLB  0
0442E:  MOVF   04,W
04430:  SUBLW  73
04432:  BC    443E
04434:  MOVF   04,W
04436:  SUBLW  86
04438:  BNC   443E
....................                goto Returno; 
0443A:  BRA    425A
....................         else if(s > 165 &&  s < 185) 
0443C:  BRA    444C
0443E:  MOVF   04,W
04440:  SUBLW  A5
04442:  BC    444C
04444:  MOVF   04,W
04446:  SUBLW  B8
04448:  BNC   444C
....................                goto RET; 
0444A:  BRA    4382
0444C:  MOVLB  2
....................      } 
....................        else  
0444E:  BRA    4454
04450:  MOVLB  0
....................            goto TEMP1; 
04452:  BRA    4206
....................    }goto TEMP1; 
04454:  MOVLB  0
04456:  BRA    4206
....................     
....................   
....................     
....................  
....................   CONF_MINI: 
....................    
....................          glcd_fillScreen(0); 
04458:  MOVLB  2
0445A:  CLRF   x7C
0445C:  MOVLB  0
0445E:  CALL   0A62
....................          glcd_rect(0,0,127,63,NO,ON); 
04462:  MOVLB  2
04464:  CLRF   x7B
04466:  CLRF   x7C
04468:  MOVLW  7F
0446A:  MOVWF  x7D
0446C:  MOVLW  3F
0446E:  MOVWF  x7E
04470:  CLRF   x7F
04472:  MOVLW  01
04474:  MOVWF  x80
04476:  MOVLB  0
04478:  CALL   0EE8
....................          glcd_rect(1,1,126,62,NO,ON); 
0447C:  MOVLW  01
0447E:  MOVLB  2
04480:  MOVWF  x7B
04482:  MOVWF  x7C
04484:  MOVLW  7E
04486:  MOVWF  x7D
04488:  MOVLW  3E
0448A:  MOVWF  x7E
0448C:  CLRF   x7F
0448E:  MOVLW  01
04490:  MOVWF  x80
04492:  MOVLB  0
04494:  CALL   0EE8
....................          glcd_text57(22,5,TEMP_MIN, 1, 1); 
04498:  MOVLW  16
0449A:  MOVLB  2
0449C:  MOVWF  x7B
0449E:  MOVLW  05
044A0:  MOVWF  x7C
044A2:  MOVLW  01
044A4:  MOVWF  x7E
044A6:  MOVLW  DE
044A8:  MOVWF  x7D
044AA:  MOVLW  01
044AC:  MOVWF  x7F
044AE:  MOVWF  x80
044B0:  MOVLB  0
044B2:  CALL   0FAA
....................          sprintf(Pgeneral2,"%02dC ",tempminima); 
044B6:  MOVLB  2
044B8:  CLRF   x78
044BA:  MOVLW  56
044BC:  MOVWF  x77
044BE:  MOVFF  13,27B
044C2:  MOVLW  01
044C4:  MOVWF  x7C
044C6:  MOVLB  0
044C8:  CALL   1402
044CC:  MOVLW  B0
044CE:  MOVLB  2
044D0:  MOVWF  x88
044D2:  MOVLB  0
044D4:  CALL   13E2
044D8:  MOVLW  43
044DA:  MOVLB  2
044DC:  MOVWF  x88
044DE:  MOVLB  0
044E0:  CALL   13E2
044E4:  MOVLW  20
044E6:  MOVLB  2
044E8:  MOVWF  x88
044EA:  MOVLB  0
044EC:  CALL   13E2
....................          glcd_text57(20,18,Pgeneral2, 2, 1);//aumenta el tamao del texto de la funcion  
044F0:  MOVLW  14
044F2:  MOVLB  2
044F4:  MOVWF  x7B
044F6:  MOVLW  12
044F8:  MOVWF  x7C
044FA:  CLRF   x7E
044FC:  MOVLW  56
044FE:  MOVWF  x7D
04500:  MOVLW  02
04502:  MOVWF  x7F
04504:  MOVLW  01
04506:  MOVWF  x80
04508:  MOVLB  0
0450A:  CALL   0FAA
....................           
....................          glcd_rect(20,34,40,35,YES,ON);         //   linea que selecciona LA HORA 
0450E:  MOVLW  14
04510:  MOVLB  2
04512:  MOVWF  x7B
04514:  MOVLW  22
04516:  MOVWF  x7C
04518:  MOVLW  28
0451A:  MOVWF  x7D
0451C:  MOVLW  23
0451E:  MOVWF  x7E
04520:  MOVLW  01
04522:  MOVWF  x7F
04524:  MOVWF  x80
04526:  MOVLB  0
04528:  CALL   0EE8
....................          glcd_rect(8,40,119,58,YES,ON);         //      recuadro 
0452C:  MOVLW  08
0452E:  MOVLB  2
04530:  MOVWF  x7B
04532:  MOVLW  28
04534:  MOVWF  x7C
04536:  MOVLW  77
04538:  MOVWF  x7D
0453A:  MOVLW  3A
0453C:  MOVWF  x7E
0453E:  MOVLW  01
04540:  MOVWF  x7F
04542:  MOVWF  x80
04544:  MOVLB  0
04546:  CALL   0EE8
....................          glcd_text57(34,46,ESTABLECER, 1, 0);   // 
0454A:  MOVLW  22
0454C:  MOVLB  2
0454E:  MOVWF  x7B
04550:  MOVLW  2E
04552:  MOVWF  x7C
04554:  MOVLW  01
04556:  MOVWF  x7E
04558:  MOVLW  A4
0455A:  MOVWF  x7D
0455C:  MOVLW  01
0455E:  MOVWF  x7F
04560:  CLRF   x80
04562:  MOVLB  0
04564:  CALL   0FAA
....................           
....................          tempset=tempminima; 
04568:  MOVFF  13,14
....................           
....................       STARTMIN: 
....................        
....................          glcd_rect(20,34,40,35,YES,ON); 
0456C:  MOVLW  14
0456E:  MOVLB  2
04570:  MOVWF  x7B
04572:  MOVLW  22
04574:  MOVWF  x7C
04576:  MOVLW  28
04578:  MOVWF  x7D
0457A:  MOVLW  23
0457C:  MOVWF  x7E
0457E:  MOVLW  01
04580:  MOVWF  x7F
04582:  MOVWF  x80
04584:  MOVLB  0
04586:  CALL   0EE8
....................          glcd_rect(52,34,73,35,YES,OFF);  
0458A:  MOVLW  34
0458C:  MOVLB  2
0458E:  MOVWF  x7B
04590:  MOVLW  22
04592:  MOVWF  x7C
04594:  MOVLW  49
04596:  MOVWF  x7D
04598:  MOVLW  23
0459A:  MOVWF  x7E
0459C:  MOVLW  01
0459E:  MOVWF  x7F
045A0:  CLRF   x80
045A2:  MOVLB  0
045A4:  CALL   0EE8
....................          glcd_rect(85,34,107,35,YES,OFF); 
045A8:  MOVLW  55
045AA:  MOVLB  2
045AC:  MOVWF  x7B
045AE:  MOVLW  22
045B0:  MOVWF  x7C
045B2:  MOVLW  6B
045B4:  MOVWF  x7D
045B6:  MOVLW  23
045B8:  MOVWF  x7E
045BA:  MOVLW  01
045BC:  MOVWF  x7F
045BE:  CLRF   x80
045C0:  MOVLB  0
045C2:  CALL   0EE8
....................           
....................              glcd_rect(9,41,118,57,NO,ON); 
045C6:  MOVLW  09
045C8:  MOVLB  2
045CA:  MOVWF  x7B
045CC:  MOVLW  29
045CE:  MOVWF  x7C
045D0:  MOVLW  76
045D2:  MOVWF  x7D
045D4:  MOVLW  39
045D6:  MOVWF  x7E
045D8:  CLRF   x7F
045DA:  MOVLW  01
045DC:  MOVWF  x80
045DE:  MOVLB  0
045E0:  CALL   0EE8
....................              s = read_adc();     
045E4:  BSF    FC2.1
045E6:  BTFSC  FC2.1
045E8:  BRA    45E6
045EA:  MOVFF  FC4,04
....................              delay_ms(50); 
045EE:  MOVLW  32
045F0:  MOVLB  2
045F2:  MOVWF  x84
045F4:  MOVLB  0
045F6:  CALL   0D82
....................     
....................     
....................              while(s>230){ 
045FA:  MOVF   04,W
045FC:  SUBLW  E6
045FE:  BC    4618
....................                    s = read_adc();     
04600:  BSF    FC2.1
04602:  BTFSC  FC2.1
04604:  BRA    4602
04606:  MOVFF  FC4,04
....................                    delay_ms(50); 
0460A:  MOVLW  32
0460C:  MOVLB  2
0460E:  MOVWF  x84
04610:  MOVLB  0
04612:  CALL   0D82
....................              } 
04616:  BRA    45FA
....................              if (s > 10 && s < 40){ // tecla arriba cuadrar hora 
04618:  MOVF   04,W
0461A:  SUBLW  0A
0461C:  BC    4692
0461E:  MOVF   04,W
04620:  SUBLW  27
04622:  BNC   4692
....................                   
....................                  if(tempset > 99 ) 
04624:  MOVF   14,W
04626:  SUBLW  63
04628:  BC    462E
....................                      tempset = 99; 
0462A:  MOVLW  63
0462C:  MOVWF  14
....................                  tempset ++; 
0462E:  INCF   14,F
....................                   
....................                  glcd_rect(20,18,40,32,YES,OFF); 
04630:  MOVLW  14
04632:  MOVLB  2
04634:  MOVWF  x7B
04636:  MOVLW  12
04638:  MOVWF  x7C
0463A:  MOVLW  28
0463C:  MOVWF  x7D
0463E:  MOVLW  20
04640:  MOVWF  x7E
04642:  MOVLW  01
04644:  MOVWF  x7F
04646:  CLRF   x80
04648:  MOVLB  0
0464A:  CALL   0EE8
....................                  sprintf(Pgeneral2,"%02d",tempset); 
0464E:  MOVLB  2
04650:  CLRF   x78
04652:  MOVLW  56
04654:  MOVWF  x77
04656:  MOVFF  14,27B
0465A:  MOVLW  01
0465C:  MOVWF  x7C
0465E:  MOVLB  0
04660:  CALL   1402
....................                  glcd_text57(20,18,Pgeneral2, 2, 1); 
04664:  MOVLW  14
04666:  MOVLB  2
04668:  MOVWF  x7B
0466A:  MOVLW  12
0466C:  MOVWF  x7C
0466E:  CLRF   x7E
04670:  MOVLW  56
04672:  MOVWF  x7D
04674:  MOVLW  02
04676:  MOVWF  x7F
04678:  MOVLW  01
0467A:  MOVWF  x80
0467C:  MOVLB  0
0467E:  CALL   0FAA
....................                  delay_ms(100); 
04682:  MOVLW  64
04684:  MOVLB  2
04686:  MOVWF  x84
04688:  MOVLB  0
0468A:  CALL   0D82
....................                  goto STARTMIN; 
0468E:  BRA    456C
....................              } 
....................             else if(s > 60 && s < 90){ 
04690:  BRA    47B0
04692:  MOVF   04,W
04694:  SUBLW  3C
04696:  BC    470A
04698:  MOVF   04,W
0469A:  SUBLW  59
0469C:  BNC   470A
....................                   
....................                  if(tempset < 1 ) 
0469E:  MOVF   14,F
046A0:  BNZ   46A6
....................                      tempset = 1; 
046A2:  MOVLW  01
046A4:  MOVWF  14
....................                  tempset --; 
046A6:  DECF   14,F
....................                  glcd_rect(20,18,40,32,YES,OFF); 
046A8:  MOVLW  14
046AA:  MOVLB  2
046AC:  MOVWF  x7B
046AE:  MOVLW  12
046B0:  MOVWF  x7C
046B2:  MOVLW  28
046B4:  MOVWF  x7D
046B6:  MOVLW  20
046B8:  MOVWF  x7E
046BA:  MOVLW  01
046BC:  MOVWF  x7F
046BE:  CLRF   x80
046C0:  MOVLB  0
046C2:  CALL   0EE8
....................                  sprintf(Pgeneral2,"%02d",tempset); 
046C6:  MOVLB  2
046C8:  CLRF   x78
046CA:  MOVLW  56
046CC:  MOVWF  x77
046CE:  MOVFF  14,27B
046D2:  MOVLW  01
046D4:  MOVWF  x7C
046D6:  MOVLB  0
046D8:  CALL   1402
....................                  glcd_text57(20,18,Pgeneral2, 2, 1); 
046DC:  MOVLW  14
046DE:  MOVLB  2
046E0:  MOVWF  x7B
046E2:  MOVLW  12
046E4:  MOVWF  x7C
046E6:  CLRF   x7E
046E8:  MOVLW  56
046EA:  MOVWF  x7D
046EC:  MOVLW  02
046EE:  MOVWF  x7F
046F0:  MOVLW  01
046F2:  MOVWF  x80
046F4:  MOVLB  0
046F6:  CALL   0FAA
....................                  delay_ms(100); 
046FA:  MOVLW  64
046FC:  MOVLB  2
046FE:  MOVWF  x84
04700:  MOVLB  0
04702:  CALL   0D82
....................                  goto STARTMIN; 
04706:  BRA    456C
....................              } 
....................               
....................               
....................       else if(s > 165 &&  s < 185){           
04708:  BRA    47B0
0470A:  MOVF   04,W
0470C:  SUBLW  A5
0470E:  BC    47AE
04710:  MOVF   04,W
04712:  SUBLW  B8
04714:  BNC   47AE
....................             
....................              glcd_rect(9,41,118,57,NO,OFF); 
04716:  MOVLW  09
04718:  MOVLB  2
0471A:  MOVWF  x7B
0471C:  MOVLW  29
0471E:  MOVWF  x7C
04720:  MOVLW  76
04722:  MOVWF  x7D
04724:  MOVLW  39
04726:  MOVWF  x7E
04728:  CLRF   x7F
0472A:  CLRF   x80
0472C:  MOVLB  0
0472E:  CALL   0EE8
....................              glcd_rect(20,34,40,35,YES,OFF); 
04732:  MOVLW  14
04734:  MOVLB  2
04736:  MOVWF  x7B
04738:  MOVLW  22
0473A:  MOVWF  x7C
0473C:  MOVLW  28
0473E:  MOVWF  x7D
04740:  MOVLW  23
04742:  MOVWF  x7E
04744:  MOVLW  01
04746:  MOVWF  x7F
04748:  CLRF   x80
0474A:  MOVLB  0
0474C:  CALL   0EE8
....................              STARTTEMP: 
....................                     delay_ms(200); 
04750:  MOVLW  C8
04752:  MOVLB  2
04754:  MOVWF  x84
04756:  MOVLB  0
04758:  CALL   0D82
....................                     s = read_adc();     
0475C:  BSF    FC2.1
0475E:  BTFSC  FC2.1
04760:  BRA    475E
04762:  MOVFF  FC4,04
....................                     delay_ms(50); 
04766:  MOVLW  32
04768:  MOVLB  2
0476A:  MOVWF  x84
0476C:  MOVLB  0
0476E:  CALL   0D82
....................                     while(s>230){ 
04772:  MOVF   04,W
04774:  SUBLW  E6
04776:  BC    4790
....................                        s = read_adc();     
04778:  BSF    FC2.1
0477A:  BTFSC  FC2.1
0477C:  BRA    477A
0477E:  MOVFF  FC4,04
....................                        delay_ms(50); 
04782:  MOVLW  32
04784:  MOVLB  2
04786:  MOVWF  x84
04788:  MOVLB  0
0478A:  CALL   0D82
....................                     } 
0478E:  BRA    4772
....................                     if(s > 195 && s < 225) 
04790:  MOVF   04,W
04792:  SUBLW  C3
04794:  BC    479E
04796:  MOVF   04,W
04798:  SUBLW  E0
0479A:  BNC   479E
....................                          goto SET_TEMP; 
0479C:  BRA    4B0C
....................                     if(s > 115 && s < 135) 
0479E:  MOVF   04,W
047A0:  SUBLW  73
047A2:  BC    47AC
047A4:  MOVF   04,W
047A6:  SUBLW  86
047A8:  BNC   47AC
....................                         goto STARTMIN; 
047AA:  BRA    456C
....................                  } 
....................                  else 
047AC:  BRA    47B0
....................                      goto STARTTEMP; 
047AE:  BRA    4750
....................                 
....................            
....................                
....................                  goto STARTMIN; 
047B0:  BRA    456C
....................            
....................           
....................  
....................  
....................        
....................        
....................   CONF_MAX: 
....................    glcd_fillScreen(0); 
047B2:  MOVLB  2
047B4:  CLRF   x7C
047B6:  MOVLB  0
047B8:  CALL   0A62
....................          glcd_rect(0,0,127,63,NO,ON); 
047BC:  MOVLB  2
047BE:  CLRF   x7B
047C0:  CLRF   x7C
047C2:  MOVLW  7F
047C4:  MOVWF  x7D
047C6:  MOVLW  3F
047C8:  MOVWF  x7E
047CA:  CLRF   x7F
047CC:  MOVLW  01
047CE:  MOVWF  x80
047D0:  MOVLB  0
047D2:  CALL   0EE8
....................          glcd_rect(1,1,126,62,NO,ON); 
047D6:  MOVLW  01
047D8:  MOVLB  2
047DA:  MOVWF  x7B
047DC:  MOVWF  x7C
047DE:  MOVLW  7E
047E0:  MOVWF  x7D
047E2:  MOVLW  3E
047E4:  MOVWF  x7E
047E6:  CLRF   x7F
047E8:  MOVLW  01
047EA:  MOVWF  x80
047EC:  MOVLB  0
047EE:  CALL   0EE8
....................          glcd_text57(22,5,TEMP_MAX, 1, 1); 
047F2:  MOVLW  16
047F4:  MOVLB  2
047F6:  MOVWF  x7B
047F8:  MOVLW  05
047FA:  MOVWF  x7C
047FC:  MOVLW  01
047FE:  MOVWF  x7E
04800:  MOVLW  EA
04802:  MOVWF  x7D
04804:  MOVLW  01
04806:  MOVWF  x7F
04808:  MOVWF  x80
0480A:  MOVLB  0
0480C:  CALL   0FAA
....................          sprintf(Pgeneral2,"%02dC ",tempmaxima); 
04810:  MOVLB  2
04812:  CLRF   x78
04814:  MOVLW  56
04816:  MOVWF  x77
04818:  MOVFF  15,27B
0481C:  MOVLW  01
0481E:  MOVWF  x7C
04820:  MOVLB  0
04822:  CALL   1402
04826:  MOVLW  B0
04828:  MOVLB  2
0482A:  MOVWF  x88
0482C:  MOVLB  0
0482E:  CALL   13E2
04832:  MOVLW  43
04834:  MOVLB  2
04836:  MOVWF  x88
04838:  MOVLB  0
0483A:  CALL   13E2
0483E:  MOVLW  20
04840:  MOVLB  2
04842:  MOVWF  x88
04844:  MOVLB  0
04846:  CALL   13E2
....................          glcd_text57(20,18,Pgeneral2, 2, 1);//aumenta el tamao del texto de la funcion  
0484A:  MOVLW  14
0484C:  MOVLB  2
0484E:  MOVWF  x7B
04850:  MOVLW  12
04852:  MOVWF  x7C
04854:  CLRF   x7E
04856:  MOVLW  56
04858:  MOVWF  x7D
0485A:  MOVLW  02
0485C:  MOVWF  x7F
0485E:  MOVLW  01
04860:  MOVWF  x80
04862:  MOVLB  0
04864:  CALL   0FAA
....................           
....................          glcd_rect(20,34,40,35,YES,ON);         //   linea que selecciona LA  
04868:  MOVLW  14
0486A:  MOVLB  2
0486C:  MOVWF  x7B
0486E:  MOVLW  22
04870:  MOVWF  x7C
04872:  MOVLW  28
04874:  MOVWF  x7D
04876:  MOVLW  23
04878:  MOVWF  x7E
0487A:  MOVLW  01
0487C:  MOVWF  x7F
0487E:  MOVWF  x80
04880:  MOVLB  0
04882:  CALL   0EE8
....................          glcd_rect(8,40,119,58,YES,ON);         //      recuadro 
04886:  MOVLW  08
04888:  MOVLB  2
0488A:  MOVWF  x7B
0488C:  MOVLW  28
0488E:  MOVWF  x7C
04890:  MOVLW  77
04892:  MOVWF  x7D
04894:  MOVLW  3A
04896:  MOVWF  x7E
04898:  MOVLW  01
0489A:  MOVWF  x7F
0489C:  MOVWF  x80
0489E:  MOVLB  0
048A0:  CALL   0EE8
....................          glcd_text57(34,46,ESTABLECER, 1, 0);   // 
048A4:  MOVLW  22
048A6:  MOVLB  2
048A8:  MOVWF  x7B
048AA:  MOVLW  2E
048AC:  MOVWF  x7C
048AE:  MOVLW  01
048B0:  MOVWF  x7E
048B2:  MOVLW  A4
048B4:  MOVWF  x7D
048B6:  MOVLW  01
048B8:  MOVWF  x7F
048BA:  CLRF   x80
048BC:  MOVLB  0
048BE:  CALL   0FAA
....................           
....................          tempset2=tempmaxima; 
048C2:  MOVFF  15,16
....................           
....................       STARTMAX: 
....................        
....................          glcd_rect(20,34,40,35,YES,ON); 
048C6:  MOVLW  14
048C8:  MOVLB  2
048CA:  MOVWF  x7B
048CC:  MOVLW  22
048CE:  MOVWF  x7C
048D0:  MOVLW  28
048D2:  MOVWF  x7D
048D4:  MOVLW  23
048D6:  MOVWF  x7E
048D8:  MOVLW  01
048DA:  MOVWF  x7F
048DC:  MOVWF  x80
048DE:  MOVLB  0
048E0:  CALL   0EE8
....................          glcd_rect(52,34,73,35,YES,OFF);  
048E4:  MOVLW  34
048E6:  MOVLB  2
048E8:  MOVWF  x7B
048EA:  MOVLW  22
048EC:  MOVWF  x7C
048EE:  MOVLW  49
048F0:  MOVWF  x7D
048F2:  MOVLW  23
048F4:  MOVWF  x7E
048F6:  MOVLW  01
048F8:  MOVWF  x7F
048FA:  CLRF   x80
048FC:  MOVLB  0
048FE:  CALL   0EE8
....................          glcd_rect(85,34,107,35,YES,OFF); 
04902:  MOVLW  55
04904:  MOVLB  2
04906:  MOVWF  x7B
04908:  MOVLW  22
0490A:  MOVWF  x7C
0490C:  MOVLW  6B
0490E:  MOVWF  x7D
04910:  MOVLW  23
04912:  MOVWF  x7E
04914:  MOVLW  01
04916:  MOVWF  x7F
04918:  CLRF   x80
0491A:  MOVLB  0
0491C:  CALL   0EE8
....................           
....................              glcd_rect(9,41,118,57,NO,ON); 
04920:  MOVLW  09
04922:  MOVLB  2
04924:  MOVWF  x7B
04926:  MOVLW  29
04928:  MOVWF  x7C
0492A:  MOVLW  76
0492C:  MOVWF  x7D
0492E:  MOVLW  39
04930:  MOVWF  x7E
04932:  CLRF   x7F
04934:  MOVLW  01
04936:  MOVWF  x80
04938:  MOVLB  0
0493A:  CALL   0EE8
....................              s = read_adc();     
0493E:  BSF    FC2.1
04940:  BTFSC  FC2.1
04942:  BRA    4940
04944:  MOVFF  FC4,04
....................              delay_ms(50); 
04948:  MOVLW  32
0494A:  MOVLB  2
0494C:  MOVWF  x84
0494E:  MOVLB  0
04950:  CALL   0D82
....................     
....................     
....................              while(s>230){ 
04954:  MOVF   04,W
04956:  SUBLW  E6
04958:  BC    4972
....................                    s = read_adc();     
0495A:  BSF    FC2.1
0495C:  BTFSC  FC2.1
0495E:  BRA    495C
04960:  MOVFF  FC4,04
....................                    delay_ms(50); 
04964:  MOVLW  32
04966:  MOVLB  2
04968:  MOVWF  x84
0496A:  MOVLB  0
0496C:  CALL   0D82
....................              } 
04970:  BRA    4954
....................              if (s > 10 && s < 40){ // tecla arriba cuadrar hora 
04972:  MOVF   04,W
04974:  SUBLW  0A
04976:  BC    49EC
04978:  MOVF   04,W
0497A:  SUBLW  27
0497C:  BNC   49EC
....................                   
....................                  if(tempset2 > 99 ) 
0497E:  MOVF   16,W
04980:  SUBLW  63
04982:  BC    4988
....................                      tempset2 = 99; 
04984:  MOVLW  63
04986:  MOVWF  16
....................                  tempset2 ++; 
04988:  INCF   16,F
....................                   
....................                  glcd_rect(20,18,40,32,YES,OFF); 
0498A:  MOVLW  14
0498C:  MOVLB  2
0498E:  MOVWF  x7B
04990:  MOVLW  12
04992:  MOVWF  x7C
04994:  MOVLW  28
04996:  MOVWF  x7D
04998:  MOVLW  20
0499A:  MOVWF  x7E
0499C:  MOVLW  01
0499E:  MOVWF  x7F
049A0:  CLRF   x80
049A2:  MOVLB  0
049A4:  CALL   0EE8
....................                  sprintf(Pgeneral2,"%02d",tempset2); 
049A8:  MOVLB  2
049AA:  CLRF   x78
049AC:  MOVLW  56
049AE:  MOVWF  x77
049B0:  MOVFF  16,27B
049B4:  MOVLW  01
049B6:  MOVWF  x7C
049B8:  MOVLB  0
049BA:  CALL   1402
....................                  glcd_text57(20,18,Pgeneral2, 2, 1); 
049BE:  MOVLW  14
049C0:  MOVLB  2
049C2:  MOVWF  x7B
049C4:  MOVLW  12
049C6:  MOVWF  x7C
049C8:  CLRF   x7E
049CA:  MOVLW  56
049CC:  MOVWF  x7D
049CE:  MOVLW  02
049D0:  MOVWF  x7F
049D2:  MOVLW  01
049D4:  MOVWF  x80
049D6:  MOVLB  0
049D8:  CALL   0FAA
....................                  delay_ms(100); 
049DC:  MOVLW  64
049DE:  MOVLB  2
049E0:  MOVWF  x84
049E2:  MOVLB  0
049E4:  CALL   0D82
....................                  goto STARTMAX; 
049E8:  BRA    48C6
....................              } 
....................             else if(s > 60 && s < 90){ 
049EA:  BRA    4B0A
049EC:  MOVF   04,W
049EE:  SUBLW  3C
049F0:  BC    4A64
049F2:  MOVF   04,W
049F4:  SUBLW  59
049F6:  BNC   4A64
....................                   
....................                  if(tempset2 < 1 ) 
049F8:  MOVF   16,F
049FA:  BNZ   4A00
....................                      tempset2 = 1; 
049FC:  MOVLW  01
049FE:  MOVWF  16
....................                  tempset2 --; 
04A00:  DECF   16,F
....................                  glcd_rect(20,18,40,32,YES,OFF); 
04A02:  MOVLW  14
04A04:  MOVLB  2
04A06:  MOVWF  x7B
04A08:  MOVLW  12
04A0A:  MOVWF  x7C
04A0C:  MOVLW  28
04A0E:  MOVWF  x7D
04A10:  MOVLW  20
04A12:  MOVWF  x7E
04A14:  MOVLW  01
04A16:  MOVWF  x7F
04A18:  CLRF   x80
04A1A:  MOVLB  0
04A1C:  CALL   0EE8
....................                  sprintf(Pgeneral2,"%02d",tempset2); 
04A20:  MOVLB  2
04A22:  CLRF   x78
04A24:  MOVLW  56
04A26:  MOVWF  x77
04A28:  MOVFF  16,27B
04A2C:  MOVLW  01
04A2E:  MOVWF  x7C
04A30:  MOVLB  0
04A32:  CALL   1402
....................                  glcd_text57(20,18,Pgeneral2, 2, 1); 
04A36:  MOVLW  14
04A38:  MOVLB  2
04A3A:  MOVWF  x7B
04A3C:  MOVLW  12
04A3E:  MOVWF  x7C
04A40:  CLRF   x7E
04A42:  MOVLW  56
04A44:  MOVWF  x7D
04A46:  MOVLW  02
04A48:  MOVWF  x7F
04A4A:  MOVLW  01
04A4C:  MOVWF  x80
04A4E:  MOVLB  0
04A50:  CALL   0FAA
....................                  delay_ms(100); 
04A54:  MOVLW  64
04A56:  MOVLB  2
04A58:  MOVWF  x84
04A5A:  MOVLB  0
04A5C:  CALL   0D82
....................                  goto STARTMAX; 
04A60:  BRA    48C6
....................              } 
....................               
....................               
....................       else if(s > 165 &&  s < 185){           
04A62:  BRA    4B0A
04A64:  MOVF   04,W
04A66:  SUBLW  A5
04A68:  BC    4B08
04A6A:  MOVF   04,W
04A6C:  SUBLW  B8
04A6E:  BNC   4B08
....................             
....................              glcd_rect(9,41,118,57,NO,OFF); 
04A70:  MOVLW  09
04A72:  MOVLB  2
04A74:  MOVWF  x7B
04A76:  MOVLW  29
04A78:  MOVWF  x7C
04A7A:  MOVLW  76
04A7C:  MOVWF  x7D
04A7E:  MOVLW  39
04A80:  MOVWF  x7E
04A82:  CLRF   x7F
04A84:  CLRF   x80
04A86:  MOVLB  0
04A88:  CALL   0EE8
....................              glcd_rect(20,34,40,35,YES,OFF); 
04A8C:  MOVLW  14
04A8E:  MOVLB  2
04A90:  MOVWF  x7B
04A92:  MOVLW  22
04A94:  MOVWF  x7C
04A96:  MOVLW  28
04A98:  MOVWF  x7D
04A9A:  MOVLW  23
04A9C:  MOVWF  x7E
04A9E:  MOVLW  01
04AA0:  MOVWF  x7F
04AA2:  CLRF   x80
04AA4:  MOVLB  0
04AA6:  CALL   0EE8
....................              STARTTEMP2: 
....................                     delay_ms(200); 
04AAA:  MOVLW  C8
04AAC:  MOVLB  2
04AAE:  MOVWF  x84
04AB0:  MOVLB  0
04AB2:  CALL   0D82
....................                     s = read_adc();     
04AB6:  BSF    FC2.1
04AB8:  BTFSC  FC2.1
04ABA:  BRA    4AB8
04ABC:  MOVFF  FC4,04
....................                     delay_ms(50); 
04AC0:  MOVLW  32
04AC2:  MOVLB  2
04AC4:  MOVWF  x84
04AC6:  MOVLB  0
04AC8:  CALL   0D82
....................                     while(s>230){ 
04ACC:  MOVF   04,W
04ACE:  SUBLW  E6
04AD0:  BC    4AEA
....................                        s = read_adc();     
04AD2:  BSF    FC2.1
04AD4:  BTFSC  FC2.1
04AD6:  BRA    4AD4
04AD8:  MOVFF  FC4,04
....................                        delay_ms(50); 
04ADC:  MOVLW  32
04ADE:  MOVLB  2
04AE0:  MOVWF  x84
04AE2:  MOVLB  0
04AE4:  CALL   0D82
....................                     } 
04AE8:  BRA    4ACC
....................                     if(s > 195 && s < 225) 
04AEA:  MOVF   04,W
04AEC:  SUBLW  C3
04AEE:  BC    4AF8
04AF0:  MOVF   04,W
04AF2:  SUBLW  E0
04AF4:  BNC   4AF8
....................                          goto SET_TEMP_MAX; 
04AF6:  BRA    4B76
....................                     if(s > 115 && s < 135) 
04AF8:  MOVF   04,W
04AFA:  SUBLW  73
04AFC:  BC    4B06
04AFE:  MOVF   04,W
04B00:  SUBLW  86
04B02:  BNC   4B06
....................                         goto STARTMAX; 
04B04:  BRA    48C6
....................                  } 
....................                  else 
04B06:  BRA    4B0A
....................                      goto STARTTEMP2; 
04B08:  BRA    4AAA
....................                 
....................            
....................                
....................                  goto STARTMAX; 
04B0A:  BRA    48C6
....................   
....................   SET_TEMP: 
....................    
....................         tempminima = tempset; 
04B0C:  MOVFF  14,13
....................         
....................         glcd_fillScreen(0); 
04B10:  MOVLB  2
04B12:  CLRF   x7C
04B14:  MOVLB  0
04B16:  CALL   0A62
....................    
....................         glcd_finalizado(); 
04B1A:  CALL   15D6
....................         glcd_text57(45,25,DATOS, 1, 1); 
04B1E:  MOVLW  2D
04B20:  MOVLB  2
04B22:  MOVWF  x7B
04B24:  MOVLW  19
04B26:  MOVWF  x7C
04B28:  MOVLW  01
04B2A:  MOVWF  x7E
04B2C:  MOVLW  B9
04B2E:  MOVWF  x7D
04B30:  MOVLW  01
04B32:  MOVWF  x7F
04B34:  MOVWF  x80
04B36:  MOVLB  0
04B38:  CALL   0FAA
....................         glcd_text57(45,35,DATOS2, 1, 1); 
04B3C:  MOVLW  2D
04B3E:  MOVLB  2
04B40:  MOVWF  x7B
04B42:  MOVLW  23
04B44:  MOVWF  x7C
04B46:  MOVLW  01
04B48:  MOVWF  x7E
04B4A:  MOVLW  BF
04B4C:  MOVWF  x7D
04B4E:  MOVLW  01
04B50:  MOVWF  x7F
04B52:  MOVWF  x80
04B54:  MOVLB  0
04B56:  CALL   0FAA
....................         delay_ms(3000); 
04B5A:  MOVLW  0C
04B5C:  MOVLB  2
04B5E:  MOVWF  x7B
04B60:  MOVLW  FA
04B62:  MOVWF  x84
04B64:  MOVLB  0
04B66:  CALL   0D82
04B6A:  MOVLB  2
04B6C:  DECFSZ x7B,F
04B6E:  BRA    4B60
....................         
....................         goto  CONF_TEMP; 
04B70:  MOVLB  0
04B72:  GOTO   402A
....................   SET_TEMP_MAX: 
....................          tempmaxima = tempset2; 
04B76:  MOVFF  16,15
....................         glcd_fillScreen(0); 
04B7A:  MOVLB  2
04B7C:  CLRF   x7C
04B7E:  MOVLB  0
04B80:  CALL   0A62
....................    
....................         glcd_finalizado(); 
04B84:  CALL   15D6
....................         glcd_text57(45,25,DATOS, 1, 1); 
04B88:  MOVLW  2D
04B8A:  MOVLB  2
04B8C:  MOVWF  x7B
04B8E:  MOVLW  19
04B90:  MOVWF  x7C
04B92:  MOVLW  01
04B94:  MOVWF  x7E
04B96:  MOVLW  B9
04B98:  MOVWF  x7D
04B9A:  MOVLW  01
04B9C:  MOVWF  x7F
04B9E:  MOVWF  x80
04BA0:  MOVLB  0
04BA2:  CALL   0FAA
....................         glcd_text57(45,35,DATOS2, 1, 1); 
04BA6:  MOVLW  2D
04BA8:  MOVLB  2
04BAA:  MOVWF  x7B
04BAC:  MOVLW  23
04BAE:  MOVWF  x7C
04BB0:  MOVLW  01
04BB2:  MOVWF  x7E
04BB4:  MOVLW  BF
04BB6:  MOVWF  x7D
04BB8:  MOVLW  01
04BBA:  MOVWF  x7F
04BBC:  MOVWF  x80
04BBE:  MOVLB  0
04BC0:  CALL   0FAA
....................         delay_ms(3000); 
04BC4:  MOVLW  0C
04BC6:  MOVLB  2
04BC8:  MOVWF  x7B
04BCA:  MOVLW  FA
04BCC:  MOVWF  x84
04BCE:  MOVLB  0
04BD0:  CALL   0D82
04BD4:  MOVLB  2
04BD6:  DECFSZ x7B,F
04BD8:  BRA    4BCA
....................           
....................         goto  CONF_TEMP; 
04BDA:  MOVLB  0
04BDC:  GOTO   402A
....................          
....................     CONF_RIEGO: 
....................      
....................          glcd_fillScreen(0); 
04BE0:  MOVLB  2
04BE2:  CLRF   x7C
04BE4:  MOVLB  0
04BE6:  CALL   0A62
....................          glcd_rect(0,0,127,63,NO,ON); 
04BEA:  MOVLB  2
04BEC:  CLRF   x7B
04BEE:  CLRF   x7C
04BF0:  MOVLW  7F
04BF2:  MOVWF  x7D
04BF4:  MOVLW  3F
04BF6:  MOVWF  x7E
04BF8:  CLRF   x7F
04BFA:  MOVLW  01
04BFC:  MOVWF  x80
04BFE:  MOVLB  0
04C00:  CALL   0EE8
....................          glcd_rect(1,1,126,62,NO,ON); 
04C04:  MOVLW  01
04C06:  MOVLB  2
04C08:  MOVWF  x7B
04C0A:  MOVWF  x7C
04C0C:  MOVLW  7E
04C0E:  MOVWF  x7D
04C10:  MOVLW  3E
04C12:  MOVWF  x7E
04C14:  CLRF   x7F
04C16:  MOVLW  01
04C18:  MOVWF  x80
04C1A:  MOVLB  0
04C1C:  CALL   0EE8
....................          
....................          glcd_text57(10,10,CON_RIEGO, 1, 1); 
04C20:  MOVLW  0A
04C22:  MOVLB  2
04C24:  MOVWF  x7B
04C26:  MOVWF  x7C
04C28:  MOVLW  02
04C2A:  MOVWF  x7E
04C2C:  MOVLW  09
04C2E:  MOVWF  x7D
04C30:  MOVLW  01
04C32:  MOVWF  x7F
04C34:  MOVWF  x80
04C36:  MOVLB  0
04C38:  CALL   0FAA
....................          glcd_rect(5,25,122,39,YES,ON); 
04C3C:  MOVLW  05
04C3E:  MOVLB  2
04C40:  MOVWF  x7B
04C42:  MOVLW  19
04C44:  MOVWF  x7C
04C46:  MOVLW  7A
04C48:  MOVWF  x7D
04C4A:  MOVLW  27
04C4C:  MOVWF  x7E
04C4E:  MOVLW  01
04C50:  MOVWF  x7F
04C52:  MOVWF  x80
04C54:  MOVLB  0
04C56:  CALL   0EE8
....................          glcd_text57(10,30,NEBULIZACION, 1, 0); 
04C5A:  MOVLW  0A
04C5C:  MOVLB  2
04C5E:  MOVWF  x7B
04C60:  MOVLW  1E
04C62:  MOVWF  x7C
04C64:  MOVLW  01
04C66:  MOVWF  x7E
04C68:  MOVLW  F6
04C6A:  MOVWF  x7D
04C6C:  MOVLW  01
04C6E:  MOVWF  x7F
04C70:  CLRF   x80
04C72:  MOVLB  0
04C74:  CALL   0FAA
....................          glcd_rect(5,42,122,56,YES,ON); 
04C78:  MOVLW  05
04C7A:  MOVLB  2
04C7C:  MOVWF  x7B
04C7E:  MOVLW  2A
04C80:  MOVWF  x7C
04C82:  MOVLW  7A
04C84:  MOVWF  x7D
04C86:  MOVLW  38
04C88:  MOVWF  x7E
04C8A:  MOVLW  01
04C8C:  MOVWF  x7F
04C8E:  MOVWF  x80
04C90:  MOVLB  0
04C92:  CALL   0EE8
....................          glcd_text57(10,47,GOTEO, 1, 0); 
04C96:  MOVLW  0A
04C98:  MOVLB  2
04C9A:  MOVWF  x7B
04C9C:  MOVLW  2F
04C9E:  MOVWF  x7C
04CA0:  MOVLW  02
04CA2:  MOVWF  x7E
04CA4:  MOVLW  03
04CA6:  MOVWF  x7D
04CA8:  MOVLW  01
04CAA:  MOVWF  x7F
04CAC:  CLRF   x80
04CAE:  MOVLB  0
04CB0:  CALL   0FAA
....................                  
....................       
....................          glcd_rect(6,26,121,38,NO,OFF); // rectangulo selector  
04CB4:  MOVLW  06
04CB6:  MOVLB  2
04CB8:  MOVWF  x7B
04CBA:  MOVLW  1A
04CBC:  MOVWF  x7C
04CBE:  MOVLW  79
04CC0:  MOVWF  x7D
04CC2:  MOVLW  26
04CC4:  MOVWF  x7E
04CC6:  CLRF   x7F
04CC8:  CLRF   x80
04CCA:  MOVLB  0
04CCC:  CALL   0EE8
....................      RIEGO:  
....................           s = read_adc(); 
04CD0:  BSF    FC2.1
04CD2:  BTFSC  FC2.1
04CD4:  BRA    4CD2
04CD6:  MOVFF  FC4,04
....................           delay_ms(100); //*************************** 
04CDA:  MOVLW  64
04CDC:  MOVLB  2
04CDE:  MOVWF  x84
04CE0:  MOVLB  0
04CE2:  CALL   0D82
....................     
....................         while(s > 240){ 
04CE6:  MOVF   04,W
04CE8:  SUBLW  F0
04CEA:  BC    4D04
....................           s = read_adc(); 
04CEC:  BSF    FC2.1
04CEE:  BTFSC  FC2.1
04CF0:  BRA    4CEE
04CF2:  MOVFF  FC4,04
....................           delay_ms(50); 
04CF6:  MOVLW  32
04CF8:  MOVLB  2
04CFA:  MOVWF  x84
04CFC:  MOVLB  0
04CFE:  CALL   0D82
....................         } 
04D02:  BRA    4CE6
....................        if(s > 195 && s < 225) //enter 
04D04:  MOVF   04,W
04D06:  SUBLW  C3
04D08:  BC    4D14
04D0A:  MOVF   04,W
04D0C:  SUBLW  E0
04D0E:  BNC   4D14
....................           goto CONF_NEBU; 
04D10:  BRA    4E08
....................        else if(s > 60 && s < 90){  // pulsa tecla abajo 
04D12:  BRA    4E06
04D14:  MOVF   04,W
04D16:  SUBLW  3C
04D18:  BTFSC  FD8.0
04D1A:  BRA    4E06
04D1C:  MOVF   04,W
04D1E:  SUBLW  59
04D20:  BTFSS  FD8.0
04D22:  BRA    4E06
....................             RE: 
....................            glcd_rect(6,26,121,38,NO,ON); 
04D24:  MOVLW  06
04D26:  MOVLB  2
04D28:  MOVWF  x7B
04D2A:  MOVLW  1A
04D2C:  MOVWF  x7C
04D2E:  MOVLW  79
04D30:  MOVWF  x7D
04D32:  MOVLW  26
04D34:  MOVWF  x7E
04D36:  CLRF   x7F
04D38:  MOVLW  01
04D3A:  MOVWF  x80
04D3C:  MOVLB  0
04D3E:  CALL   0EE8
....................            glcd_rect(6,43,121,55,NO,OFF); 
04D42:  MOVLW  06
04D44:  MOVLB  2
04D46:  MOVWF  x7B
04D48:  MOVLW  2B
04D4A:  MOVWF  x7C
04D4C:  MOVLW  79
04D4E:  MOVWF  x7D
04D50:  MOVLW  37
04D52:  MOVWF  x7E
04D54:  CLRF   x7F
04D56:  CLRF   x80
04D58:  MOVLB  0
04D5A:  CALL   0EE8
....................            delay_ms(100); 
04D5E:  MOVLW  64
04D60:  MOVLB  2
04D62:  MOVWF  x84
04D64:  MOVLB  0
04D66:  CALL   0D82
....................            s = read_adc(); 
04D6A:  BSF    FC2.1
04D6C:  BTFSC  FC2.1
04D6E:  BRA    4D6C
04D70:  MOVFF  FC4,04
....................            delay_us(40); 
04D74:  MOVLW  1A
04D76:  MOVWF  00
04D78:  DECFSZ 00,F
04D7A:  BRA    4D78
04D7C:  NOP   
....................             
....................          while(s > 240){ 
04D7E:  MOVF   04,W
04D80:  SUBLW  F0
04D82:  BC    4D9C
....................           s = read_adc(); 
04D84:  BSF    FC2.1
04D86:  BTFSC  FC2.1
04D88:  BRA    4D86
04D8A:  MOVFF  FC4,04
....................           delay_ms(50); 
04D8E:  MOVLW  32
04D90:  MOVLB  2
04D92:  MOVWF  x84
04D94:  MOVLB  0
04D96:  CALL   0D82
....................          } 
04D9A:  BRA    4D7E
....................       if(s > 195 && s < 225) //enter 
04D9C:  MOVF   04,W
04D9E:  SUBLW  C3
04DA0:  BC    4DAC
04DA2:  MOVF   04,W
04DA4:  SUBLW  E0
04DA6:  BNC   4DAC
....................           goto CONF_GOT; 
04DA8:  GOTO   693A
....................          
....................          
....................          if(s > 60 && s < 90) 
04DAC:  MOVF   04,W
04DAE:  SUBLW  3C
04DB0:  BC    4DBA
04DB2:  MOVF   04,W
04DB4:  SUBLW  59
04DB6:  BNC   4DBA
....................          goto RE; 
04DB8:  BRA    4D24
....................          if( s > 10 && s < 40){ 
04DBA:  MOVF   04,W
04DBC:  SUBLW  0A
04DBE:  BC    4E04
04DC0:  MOVF   04,W
04DC2:  SUBLW  27
04DC4:  BNC   4E04
....................             glcd_rect(6,26,121,38,NO,OFF); 
04DC6:  MOVLW  06
04DC8:  MOVLB  2
04DCA:  MOVWF  x7B
04DCC:  MOVLW  1A
04DCE:  MOVWF  x7C
04DD0:  MOVLW  79
04DD2:  MOVWF  x7D
04DD4:  MOVLW  26
04DD6:  MOVWF  x7E
04DD8:  CLRF   x7F
04DDA:  CLRF   x80
04DDC:  MOVLB  0
04DDE:  CALL   0EE8
....................             glcd_rect(6,43,121,55,NO,ON); 
04DE2:  MOVLW  06
04DE4:  MOVLB  2
04DE6:  MOVWF  x7B
04DE8:  MOVLW  2B
04DEA:  MOVWF  x7C
04DEC:  MOVLW  79
04DEE:  MOVWF  x7D
04DF0:  MOVLW  37
04DF2:  MOVWF  x7E
04DF4:  CLRF   x7F
04DF6:  MOVLW  01
04DF8:  MOVWF  x80
04DFA:  MOVLB  0
04DFC:  CALL   0EE8
....................          goto RIEGO; 
04E00:  BRA    4CD0
....................          } 
....................          else goto RE; 
04E02:  BRA    4E06
04E04:  BRA    4D24
....................        } 
....................        goto RIEGO; 
04E06:  BRA    4CD0
....................        
....................           
....................           
....................       CONF_NEBU: 
....................        
....................          glcd_fillScreen(0); 
04E08:  MOVLB  2
04E0A:  CLRF   x7C
04E0C:  MOVLB  0
04E0E:  CALL   0A62
....................          glcd_rect(0,0,127,63,NO,ON); 
04E12:  MOVLB  2
04E14:  CLRF   x7B
04E16:  CLRF   x7C
04E18:  MOVLW  7F
04E1A:  MOVWF  x7D
04E1C:  MOVLW  3F
04E1E:  MOVWF  x7E
04E20:  CLRF   x7F
04E22:  MOVLW  01
04E24:  MOVWF  x80
04E26:  MOVLB  0
04E28:  CALL   0EE8
....................          glcd_rect(1,1,126,62,NO,ON); 
04E2C:  MOVLW  01
04E2E:  MOVLB  2
04E30:  MOVWF  x7B
04E32:  MOVWF  x7C
04E34:  MOVLW  7E
04E36:  MOVWF  x7D
04E38:  MOVLW  3E
04E3A:  MOVWF  x7E
04E3C:  CLRF   x7F
04E3E:  MOVLW  01
04E40:  MOVWF  x80
04E42:  MOVLB  0
04E44:  CALL   0EE8
....................          
....................          glcd_text57(10,10,NEBULIZACION, 1, 1); 
04E48:  MOVLW  0A
04E4A:  MOVLB  2
04E4C:  MOVWF  x7B
04E4E:  MOVWF  x7C
04E50:  MOVLW  01
04E52:  MOVWF  x7E
04E54:  MOVLW  F6
04E56:  MOVWF  x7D
04E58:  MOVLW  01
04E5A:  MOVWF  x7F
04E5C:  MOVWF  x80
04E5E:  MOVLB  0
04E60:  CALL   0FAA
....................          glcd_rect(5,25,122,39,YES,ON); 
04E64:  MOVLW  05
04E66:  MOVLB  2
04E68:  MOVWF  x7B
04E6A:  MOVLW  19
04E6C:  MOVWF  x7C
04E6E:  MOVLW  7A
04E70:  MOVWF  x7D
04E72:  MOVLW  27
04E74:  MOVWF  x7E
04E76:  MOVLW  01
04E78:  MOVWF  x7F
04E7A:  MOVWF  x80
04E7C:  MOVLB  0
04E7E:  CALL   0EE8
....................          glcd_text57(10,30,TEMPORIZADO, 1, 0); 
04E82:  MOVLW  0A
04E84:  MOVLB  2
04E86:  MOVWF  x7B
04E88:  MOVLW  1E
04E8A:  MOVWF  x7C
04E8C:  MOVLW  02
04E8E:  MOVWF  x7E
04E90:  MOVLW  22
04E92:  MOVWF  x7D
04E94:  MOVLW  01
04E96:  MOVWF  x7F
04E98:  CLRF   x80
04E9A:  MOVLB  0
04E9C:  CALL   0FAA
....................          glcd_rect(5,42,122,56,YES,ON); 
04EA0:  MOVLW  05
04EA2:  MOVLB  2
04EA4:  MOVWF  x7B
04EA6:  MOVLW  2A
04EA8:  MOVWF  x7C
04EAA:  MOVLW  7A
04EAC:  MOVWF  x7D
04EAE:  MOVLW  38
04EB0:  MOVWF  x7E
04EB2:  MOVLW  01
04EB4:  MOVWF  x7F
04EB6:  MOVWF  x80
04EB8:  MOVLB  0
04EBA:  CALL   0EE8
....................          glcd_text57(10,47,SENSADO, 1, 0); 
04EBE:  MOVLW  0A
04EC0:  MOVLB  2
04EC2:  MOVWF  x7B
04EC4:  MOVLW  2F
04EC6:  MOVWF  x7C
04EC8:  MOVLW  02
04ECA:  MOVWF  x7E
04ECC:  MOVLW  1A
04ECE:  MOVWF  x7D
04ED0:  MOVLW  01
04ED2:  MOVWF  x7F
04ED4:  CLRF   x80
04ED6:  MOVLB  0
04ED8:  CALL   0FAA
....................           
....................          glcd_rect(6,26,121,38,NO,OFF); // rectangulo selector  
04EDC:  MOVLW  06
04EDE:  MOVLB  2
04EE0:  MOVWF  x7B
04EE2:  MOVLW  1A
04EE4:  MOVWF  x7C
04EE6:  MOVLW  79
04EE8:  MOVWF  x7D
04EEA:  MOVLW  26
04EEC:  MOVWF  x7E
04EEE:  CLRF   x7F
04EF0:  CLRF   x80
04EF2:  MOVLB  0
04EF4:  CALL   0EE8
....................      SEN:  
....................           s = read_adc(); 
04EF8:  BSF    FC2.1
04EFA:  BTFSC  FC2.1
04EFC:  BRA    4EFA
04EFE:  MOVFF  FC4,04
....................           delay_ms(100); //*************************** 
04F02:  MOVLW  64
04F04:  MOVLB  2
04F06:  MOVWF  x84
04F08:  MOVLB  0
04F0A:  CALL   0D82
....................     
....................         while(s > 240){ 
04F0E:  MOVF   04,W
04F10:  SUBLW  F0
04F12:  BC    4F2C
....................           s = read_adc(); 
04F14:  BSF    FC2.1
04F16:  BTFSC  FC2.1
04F18:  BRA    4F16
04F1A:  MOVFF  FC4,04
....................           delay_ms(50); 
04F1E:  MOVLW  32
04F20:  MOVLB  2
04F22:  MOVWF  x84
04F24:  MOVLB  0
04F26:  CALL   0D82
....................         } 
04F2A:  BRA    4F0E
....................        if(s > 195 && s < 225) //enter 
04F2C:  MOVF   04,W
04F2E:  SUBLW  C3
04F30:  BC    4F3C
04F32:  MOVF   04,W
04F34:  SUBLW  E0
04F36:  BNC   4F3C
....................           goto CONF_TEMPORIZADOR; 
04F38:  BRA    5030
....................        else if(s > 60 && s < 90){  // pulsa tecla abajo 
04F3A:  BRA    502E
04F3C:  MOVF   04,W
04F3E:  SUBLW  3C
04F40:  BTFSC  FD8.0
04F42:  BRA    502E
04F44:  MOVF   04,W
04F46:  SUBLW  59
04F48:  BTFSS  FD8.0
04F4A:  BRA    502E
....................             RE1: 
....................            glcd_rect(6,26,121,38,NO,ON); 
04F4C:  MOVLW  06
04F4E:  MOVLB  2
04F50:  MOVWF  x7B
04F52:  MOVLW  1A
04F54:  MOVWF  x7C
04F56:  MOVLW  79
04F58:  MOVWF  x7D
04F5A:  MOVLW  26
04F5C:  MOVWF  x7E
04F5E:  CLRF   x7F
04F60:  MOVLW  01
04F62:  MOVWF  x80
04F64:  MOVLB  0
04F66:  CALL   0EE8
....................            glcd_rect(6,43,121,55,NO,OFF); 
04F6A:  MOVLW  06
04F6C:  MOVLB  2
04F6E:  MOVWF  x7B
04F70:  MOVLW  2B
04F72:  MOVWF  x7C
04F74:  MOVLW  79
04F76:  MOVWF  x7D
04F78:  MOVLW  37
04F7A:  MOVWF  x7E
04F7C:  CLRF   x7F
04F7E:  CLRF   x80
04F80:  MOVLB  0
04F82:  CALL   0EE8
....................            delay_ms(100); 
04F86:  MOVLW  64
04F88:  MOVLB  2
04F8A:  MOVWF  x84
04F8C:  MOVLB  0
04F8E:  CALL   0D82
....................            s = read_adc(); 
04F92:  BSF    FC2.1
04F94:  BTFSC  FC2.1
04F96:  BRA    4F94
04F98:  MOVFF  FC4,04
....................            delay_us(40); 
04F9C:  MOVLW  1A
04F9E:  MOVWF  00
04FA0:  DECFSZ 00,F
04FA2:  BRA    4FA0
04FA4:  NOP   
....................             
....................          while(s > 240){ 
04FA6:  MOVF   04,W
04FA8:  SUBLW  F0
04FAA:  BC    4FC4
....................           s = read_adc(); 
04FAC:  BSF    FC2.1
04FAE:  BTFSC  FC2.1
04FB0:  BRA    4FAE
04FB2:  MOVFF  FC4,04
....................           delay_ms(50); 
04FB6:  MOVLW  32
04FB8:  MOVLB  2
04FBA:  MOVWF  x84
04FBC:  MOVLB  0
04FBE:  CALL   0D82
....................          } 
04FC2:  BRA    4FA6
....................       if(s > 195 && s < 225) //enter 
04FC4:  MOVF   04,W
04FC6:  SUBLW  C3
04FC8:  BC    4FD4
04FCA:  MOVF   04,W
04FCC:  SUBLW  E0
04FCE:  BNC   4FD4
....................           goto CONF_SENSADO;    
04FD0:  GOTO   697A
....................          if(s > 60 && s < 90) 
04FD4:  MOVF   04,W
04FD6:  SUBLW  3C
04FD8:  BC    4FE2
04FDA:  MOVF   04,W
04FDC:  SUBLW  59
04FDE:  BNC   4FE2
....................          goto RE1; 
04FE0:  BRA    4F4C
....................          if( s > 10 && s < 40){ 
04FE2:  MOVF   04,W
04FE4:  SUBLW  0A
04FE6:  BC    502C
04FE8:  MOVF   04,W
04FEA:  SUBLW  27
04FEC:  BNC   502C
....................             glcd_rect(6,26,121,38,NO,OFF); 
04FEE:  MOVLW  06
04FF0:  MOVLB  2
04FF2:  MOVWF  x7B
04FF4:  MOVLW  1A
04FF6:  MOVWF  x7C
04FF8:  MOVLW  79
04FFA:  MOVWF  x7D
04FFC:  MOVLW  26
04FFE:  MOVWF  x7E
05000:  CLRF   x7F
05002:  CLRF   x80
05004:  MOVLB  0
05006:  CALL   0EE8
....................             glcd_rect(6,43,121,55,NO,ON); 
0500A:  MOVLW  06
0500C:  MOVLB  2
0500E:  MOVWF  x7B
05010:  MOVLW  2B
05012:  MOVWF  x7C
05014:  MOVLW  79
05016:  MOVWF  x7D
05018:  MOVLW  37
0501A:  MOVWF  x7E
0501C:  CLRF   x7F
0501E:  MOVLW  01
05020:  MOVWF  x80
05022:  MOVLB  0
05024:  CALL   0EE8
....................          goto SEN; 
05028:  BRA    4EF8
....................          } 
....................          else goto RE1; 
0502A:  BRA    502E
0502C:  BRA    4F4C
....................        } 
....................        goto SEN; 
0502E:  BRA    4EF8
....................        
....................  
....................      CONF_TEMPORIZADOR: 
....................       
....................         
....................          glcd_fillScreen(0); 
05030:  MOVLB  2
05032:  CLRF   x7C
05034:  MOVLB  0
05036:  CALL   0A62
....................          glcd_rect(0,0,127,63,NO,ON); 
0503A:  MOVLB  2
0503C:  CLRF   x7B
0503E:  CLRF   x7C
05040:  MOVLW  7F
05042:  MOVWF  x7D
05044:  MOVLW  3F
05046:  MOVWF  x7E
05048:  CLRF   x7F
0504A:  MOVLW  01
0504C:  MOVWF  x80
0504E:  MOVLB  0
05050:  CALL   0EE8
....................          glcd_rect(1,1,126,62,NO,ON); 
05054:  MOVLW  01
05056:  MOVLB  2
05058:  MOVWF  x7B
0505A:  MOVWF  x7C
0505C:  MOVLW  7E
0505E:  MOVWF  x7D
05060:  MOVLW  3E
05062:  MOVWF  x7E
05064:  CLRF   x7F
05066:  MOVLW  01
05068:  MOVWF  x80
0506A:  MOVLB  0
0506C:  CALL   0EE8
....................             
....................          glcd_rect(3,3,122,18,YES,ON); 
05070:  MOVLW  03
05072:  MOVLB  2
05074:  MOVWF  x7B
05076:  MOVWF  x7C
05078:  MOVLW  7A
0507A:  MOVWF  x7D
0507C:  MOVLW  12
0507E:  MOVWF  x7E
05080:  MOVLW  01
05082:  MOVWF  x7F
05084:  MOVWF  x80
05086:  MOVLB  0
05088:  CALL   0EE8
....................          glcd_text57(10,6,TIEMPO_REPOSO, 1, 0); 
0508C:  MOVLW  0A
0508E:  MOVLB  2
05090:  MOVWF  x7B
05092:  MOVLW  06
05094:  MOVWF  x7C
05096:  MOVLW  02
05098:  MOVWF  x7E
0509A:  MOVLW  2E
0509C:  MOVWF  x7D
0509E:  MOVLW  01
050A0:  MOVWF  x7F
050A2:  CLRF   x80
050A4:  MOVLB  0
050A6:  CALL   0FAA
....................          glcd_rect(3,20,122,33,YES,ON); 
050AA:  MOVLW  03
050AC:  MOVLB  2
050AE:  MOVWF  x7B
050B0:  MOVLW  14
050B2:  MOVWF  x7C
050B4:  MOVLW  7A
050B6:  MOVWF  x7D
050B8:  MOVLW  21
050BA:  MOVWF  x7E
050BC:  MOVLW  01
050BE:  MOVWF  x7F
050C0:  MOVWF  x80
050C2:  MOVLB  0
050C4:  CALL   0EE8
....................          glcd_text57(10,23,TIEMPO_RIEGO, 1, 0); 
050C8:  MOVLW  0A
050CA:  MOVLB  2
050CC:  MOVWF  x7B
050CE:  MOVLW  17
050D0:  MOVWF  x7C
050D2:  MOVLW  02
050D4:  MOVWF  x7E
050D6:  MOVLW  3F
050D8:  MOVWF  x7D
050DA:  MOVLW  01
050DC:  MOVWF  x7F
050DE:  CLRF   x80
050E0:  MOVLB  0
050E2:  CALL   0FAA
....................          glcd_rect(3,35,122,46,YES,ON); 
050E6:  MOVLW  03
050E8:  MOVLB  2
050EA:  MOVWF  x7B
050EC:  MOVLW  23
050EE:  MOVWF  x7C
050F0:  MOVLW  7A
050F2:  MOVWF  x7D
050F4:  MOVLW  2E
050F6:  MOVWF  x7E
050F8:  MOVLW  01
050FA:  MOVWF  x7F
050FC:  MOVWF  x80
050FE:  MOVLB  0
05100:  CALL   0EE8
....................          glcd_text57(10,38,NUM_CICLOS, 1, 0); 
05104:  MOVLW  0A
05106:  MOVLB  2
05108:  MOVWF  x7B
0510A:  MOVLW  26
0510C:  MOVWF  x7C
0510E:  MOVLW  02
05110:  MOVWF  x7E
05112:  MOVLW  4F
05114:  MOVWF  x7D
05116:  MOVLW  01
05118:  MOVWF  x7F
0511A:  CLRF   x80
0511C:  MOVLB  0
0511E:  CALL   0FAA
....................          glcd_rect(3,48,122,60,YES,ON); 
05122:  MOVLW  03
05124:  MOVLB  2
05126:  MOVWF  x7B
05128:  MOVLW  30
0512A:  MOVWF  x7C
0512C:  MOVLW  7A
0512E:  MOVWF  x7D
05130:  MOVLW  3C
05132:  MOVWF  x7E
05134:  MOVLW  01
05136:  MOVWF  x7F
05138:  MOVWF  x80
0513A:  MOVLB  0
0513C:  CALL   0EE8
....................          glcd_text57(10,50,DIAS_TRABAJO, 1, 0); 
05140:  MOVLW  0A
05142:  MOVLB  2
05144:  MOVWF  x7B
05146:  MOVLW  32
05148:  MOVWF  x7C
0514A:  MOVLW  02
0514C:  MOVWF  x7E
0514E:  MOVLW  67
05150:  MOVWF  x7D
05152:  MOVLW  01
05154:  MOVWF  x7F
05156:  CLRF   x80
05158:  MOVLB  0
0515A:  CALL   0FAA
....................           
....................          glcd_rect(4,4,121,17,NO,OFF); // rectangulo selector  
0515E:  MOVLW  04
05160:  MOVLB  2
05162:  MOVWF  x7B
05164:  MOVWF  x7C
05166:  MOVLW  79
05168:  MOVWF  x7D
0516A:  MOVLW  11
0516C:  MOVWF  x7E
0516E:  CLRF   x7F
05170:  CLRF   x80
05172:  MOVLB  0
05174:  CALL   0EE8
....................          
....................         TEMPO:  
....................           s = read_adc(); 
05178:  BSF    FC2.1
0517A:  BTFSC  FC2.1
0517C:  BRA    517A
0517E:  MOVFF  FC4,04
....................           delay_ms(100); //*************************** 
05182:  MOVLW  64
05184:  MOVLB  2
05186:  MOVWF  x84
05188:  MOVLB  0
0518A:  CALL   0D82
....................     
....................         while(s > 240){ 
0518E:  MOVF   04,W
05190:  SUBLW  F0
05192:  BC    51AC
....................           s = read_adc(); 
05194:  BSF    FC2.1
05196:  BTFSC  FC2.1
05198:  BRA    5196
0519A:  MOVFF  FC4,04
....................           delay_ms(50); 
0519E:  MOVLW  32
051A0:  MOVLB  2
051A2:  MOVWF  x84
051A4:  MOVLB  0
051A6:  CALL   0D82
....................         } 
051AA:  BRA    518E
....................        if(s > 195 && s < 225) //enter 
051AC:  MOVF   04,W
051AE:  SUBLW  C3
051B0:  BC    51BC
051B2:  MOVF   04,W
051B4:  SUBLW  E0
051B6:  BNC   51BC
....................           goto CONF_REPOSO; 
051B8:  BRA    5420
....................        else if(s > 60 && s < 90){  // pulsa tecla abajo 
051BA:  BRA    541E
051BC:  MOVF   04,W
051BE:  SUBLW  3C
051C0:  BTFSC  FD8.0
051C2:  BRA    541E
051C4:  MOVF   04,W
051C6:  SUBLW  59
051C8:  BTFSS  FD8.0
051CA:  BRA    541E
....................          TEMPO2: 
....................            glcd_rect(4,4,121,17,NO,ON); 
051CC:  MOVLW  04
051CE:  MOVLB  2
051D0:  MOVWF  x7B
051D2:  MOVWF  x7C
051D4:  MOVLW  79
051D6:  MOVWF  x7D
051D8:  MOVLW  11
051DA:  MOVWF  x7E
051DC:  CLRF   x7F
051DE:  MOVLW  01
051E0:  MOVWF  x80
051E2:  MOVLB  0
051E4:  CALL   0EE8
....................            glcd_rect(4,21,121,32,NO,OFF); 
051E8:  MOVLW  04
051EA:  MOVLB  2
051EC:  MOVWF  x7B
051EE:  MOVLW  15
051F0:  MOVWF  x7C
051F2:  MOVLW  79
051F4:  MOVWF  x7D
051F6:  MOVLW  20
051F8:  MOVWF  x7E
051FA:  CLRF   x7F
051FC:  CLRF   x80
051FE:  MOVLB  0
05200:  CALL   0EE8
....................            delay_ms(100); 
05204:  MOVLW  64
05206:  MOVLB  2
05208:  MOVWF  x84
0520A:  MOVLB  0
0520C:  CALL   0D82
....................            s = read_adc(); 
05210:  BSF    FC2.1
05212:  BTFSC  FC2.1
05214:  BRA    5212
05216:  MOVFF  FC4,04
....................            delay_us(40); 
0521A:  MOVLW  1A
0521C:  MOVWF  00
0521E:  DECFSZ 00,F
05220:  BRA    521E
05222:  NOP   
....................             
....................          while(s > 240){ 
05224:  MOVF   04,W
05226:  SUBLW  F0
05228:  BC    5242
....................           s = read_adc(); 
0522A:  BSF    FC2.1
0522C:  BTFSC  FC2.1
0522E:  BRA    522C
05230:  MOVFF  FC4,04
....................           delay_ms(50); 
05234:  MOVLW  32
05236:  MOVLB  2
05238:  MOVWF  x84
0523A:  MOVLB  0
0523C:  CALL   0D82
....................          } 
05240:  BRA    5224
....................       if(s > 195 && s < 225) //enter 
05242:  MOVF   04,W
05244:  SUBLW  C3
05246:  BC    5250
05248:  MOVF   04,W
0524A:  SUBLW  E0
0524C:  BNC   5250
....................           goto CONF_RIEGO2; 
0524E:  BRA    5974
....................       if(s > 10 && s < 40){ 
05250:  MOVF   04,W
05252:  SUBLW  0A
05254:  BC    5296
05256:  MOVF   04,W
05258:  SUBLW  27
0525A:  BNC   5296
....................            glcd_rect(4,4,121,17,NO,OFF); 
0525C:  MOVLW  04
0525E:  MOVLB  2
05260:  MOVWF  x7B
05262:  MOVWF  x7C
05264:  MOVLW  79
05266:  MOVWF  x7D
05268:  MOVLW  11
0526A:  MOVWF  x7E
0526C:  CLRF   x7F
0526E:  CLRF   x80
05270:  MOVLB  0
05272:  CALL   0EE8
....................            glcd_rect(4,21,121,32,NO,ON); 
05276:  MOVLW  04
05278:  MOVLB  2
0527A:  MOVWF  x7B
0527C:  MOVLW  15
0527E:  MOVWF  x7C
05280:  MOVLW  79
05282:  MOVWF  x7D
05284:  MOVLW  20
05286:  MOVWF  x7E
05288:  CLRF   x7F
0528A:  MOVLW  01
0528C:  MOVWF  x80
0528E:  MOVLB  0
05290:  CALL   0EE8
....................          goto TEMPO; 
05294:  BRA    5178
....................        } 
....................         
....................       if(s > 60 && s < 90){  // pulsa tecla abajo 
05296:  MOVF   04,W
05298:  SUBLW  3C
0529A:  BTFSC  FD8.0
0529C:  BRA    541E
0529E:  MOVF   04,W
052A0:  SUBLW  59
052A2:  BTFSS  FD8.0
052A4:  BRA    541E
....................          TEMPO3: 
....................            glcd_rect(4,21,121,32,NO,ON); 
052A6:  MOVLW  04
052A8:  MOVLB  2
052AA:  MOVWF  x7B
052AC:  MOVLW  15
052AE:  MOVWF  x7C
052B0:  MOVLW  79
052B2:  MOVWF  x7D
052B4:  MOVLW  20
052B6:  MOVWF  x7E
052B8:  CLRF   x7F
052BA:  MOVLW  01
052BC:  MOVWF  x80
052BE:  MOVLB  0
052C0:  CALL   0EE8
....................            glcd_rect(4,36,121,45,NO,OFF); 
052C4:  MOVLW  04
052C6:  MOVLB  2
052C8:  MOVWF  x7B
052CA:  MOVLW  24
052CC:  MOVWF  x7C
052CE:  MOVLW  79
052D0:  MOVWF  x7D
052D2:  MOVLW  2D
052D4:  MOVWF  x7E
052D6:  CLRF   x7F
052D8:  CLRF   x80
052DA:  MOVLB  0
052DC:  CALL   0EE8
....................            delay_ms(100); 
052E0:  MOVLW  64
052E2:  MOVLB  2
052E4:  MOVWF  x84
052E6:  MOVLB  0
052E8:  CALL   0D82
....................            s = read_adc(); 
052EC:  BSF    FC2.1
052EE:  BTFSC  FC2.1
052F0:  BRA    52EE
052F2:  MOVFF  FC4,04
....................            delay_us(40); 
052F6:  MOVLW  1A
052F8:  MOVWF  00
052FA:  DECFSZ 00,F
052FC:  BRA    52FA
052FE:  NOP   
....................             
....................          while(s > 240){ 
05300:  MOVF   04,W
05302:  SUBLW  F0
05304:  BC    531E
....................           s = read_adc(); 
05306:  BSF    FC2.1
05308:  BTFSC  FC2.1
0530A:  BRA    5308
0530C:  MOVFF  FC4,04
....................           delay_ms(50); 
05310:  MOVLW  32
05312:  MOVLB  2
05314:  MOVWF  x84
05316:  MOVLB  0
05318:  CALL   0D82
....................          } 
0531C:  BRA    5300
....................       if(s > 195 && s < 225) //enter 
0531E:  MOVF   04,W
05320:  SUBLW  C3
05322:  BC    532E
05324:  MOVF   04,W
05326:  SUBLW  E0
05328:  BNC   532E
....................           goto CONF_NUMERO; 
0532A:  GOTO   5EC2
....................       if(s > 10 && s < 40){ 
0532E:  MOVF   04,W
05330:  SUBLW  0A
05332:  BC    535A
05334:  MOVF   04,W
05336:  SUBLW  27
05338:  BNC   535A
....................        glcd_rect(4,36,121,45,NO,ON); 
0533A:  MOVLW  04
0533C:  MOVLB  2
0533E:  MOVWF  x7B
05340:  MOVLW  24
05342:  MOVWF  x7C
05344:  MOVLW  79
05346:  MOVWF  x7D
05348:  MOVLW  2D
0534A:  MOVWF  x7E
0534C:  CLRF   x7F
0534E:  MOVLW  01
05350:  MOVWF  x80
05352:  MOVLB  0
05354:  CALL   0EE8
....................           goto TEMPO2; 
05358:  BRA    51CC
....................       } 
....................       if(s > 60 && s < 90){  // pulsa tecla abajo 
0535A:  MOVF   04,W
0535C:  SUBLW  3C
0535E:  BC    541E
05360:  MOVF   04,W
05362:  SUBLW  59
05364:  BNC   541E
....................             TEMPO4: 
....................              
....................            glcd_rect(4,49,121,59,NO,OFF); 
05366:  MOVLW  04
05368:  MOVLB  2
0536A:  MOVWF  x7B
0536C:  MOVLW  31
0536E:  MOVWF  x7C
05370:  MOVLW  79
05372:  MOVWF  x7D
05374:  MOVLW  3B
05376:  MOVWF  x7E
05378:  CLRF   x7F
0537A:  CLRF   x80
0537C:  MOVLB  0
0537E:  CALL   0EE8
....................            glcd_rect(4,36,121,45,NO,ON); 
05382:  MOVLW  04
05384:  MOVLB  2
05386:  MOVWF  x7B
05388:  MOVLW  24
0538A:  MOVWF  x7C
0538C:  MOVLW  79
0538E:  MOVWF  x7D
05390:  MOVLW  2D
05392:  MOVWF  x7E
05394:  CLRF   x7F
05396:  MOVLW  01
05398:  MOVWF  x80
0539A:  MOVLB  0
0539C:  CALL   0EE8
....................            delay_ms(100); 
053A0:  MOVLW  64
053A2:  MOVLB  2
053A4:  MOVWF  x84
053A6:  MOVLB  0
053A8:  CALL   0D82
....................            s = read_adc(); 
053AC:  BSF    FC2.1
053AE:  BTFSC  FC2.1
053B0:  BRA    53AE
053B2:  MOVFF  FC4,04
....................            delay_us(40); 
053B6:  MOVLW  1A
053B8:  MOVWF  00
053BA:  DECFSZ 00,F
053BC:  BRA    53BA
053BE:  NOP   
....................             
....................          while(s > 240){ 
053C0:  MOVF   04,W
053C2:  SUBLW  F0
053C4:  BC    53DE
....................           s = read_adc(); 
053C6:  BSF    FC2.1
053C8:  BTFSC  FC2.1
053CA:  BRA    53C8
053CC:  MOVFF  FC4,04
....................           delay_ms(50); 
053D0:  MOVLW  32
053D2:  MOVLB  2
053D4:  MOVWF  x84
053D6:  MOVLB  0
053D8:  CALL   0D82
....................          } 
053DC:  BRA    53C0
....................       if(s > 195 && s < 225) //enter 
053DE:  MOVF   04,W
053E0:  SUBLW  C3
053E2:  BC    53EE
053E4:  MOVF   04,W
053E6:  SUBLW  E0
053E8:  BNC   53EE
....................           goto CONF_DIAS; 
053EA:  GOTO   625C
....................       if(s > 10 && s < 40){ 
053EE:  MOVF   04,W
053F0:  SUBLW  0A
053F2:  BC    541C
053F4:  MOVF   04,W
053F6:  SUBLW  27
053F8:  BNC   541C
....................        glcd_rect(4,49,121,59,NO,ON); 
053FA:  MOVLW  04
053FC:  MOVLB  2
053FE:  MOVWF  x7B
05400:  MOVLW  31
05402:  MOVWF  x7C
05404:  MOVLW  79
05406:  MOVWF  x7D
05408:  MOVLW  3B
0540A:  MOVWF  x7E
0540C:  CLRF   x7F
0540E:  MOVLW  01
05410:  MOVWF  x80
05412:  MOVLB  0
05414:  CALL   0EE8
....................           goto TEMPO3; 
05418:  BRA    52A6
....................       } 
....................       else goto TEMPO4;  
0541A:  BRA    541E
0541C:  BRA    5366
....................           
....................          } 
....................         }  
....................        }goto TEMPO; 
0541E:  BRA    5178
....................  
....................          
....................  
....................      CONF_REPOSO: 
....................       
....................        glcd_fillScreen(0); 
05420:  MOVLB  2
05422:  CLRF   x7C
05424:  MOVLB  0
05426:  CALL   0A62
....................        glcd_rect(0,0,127,63,NO,ON); 
0542A:  MOVLB  2
0542C:  CLRF   x7B
0542E:  CLRF   x7C
05430:  MOVLW  7F
05432:  MOVWF  x7D
05434:  MOVLW  3F
05436:  MOVWF  x7E
05438:  CLRF   x7F
0543A:  MOVLW  01
0543C:  MOVWF  x80
0543E:  MOVLB  0
05440:  CALL   0EE8
....................        glcd_rect(1,1,126,62,NO,ON); 
05444:  MOVLW  01
05446:  MOVLB  2
05448:  MOVWF  x7B
0544A:  MOVWF  x7C
0544C:  MOVLW  7E
0544E:  MOVWF  x7D
05450:  MOVLW  3E
05452:  MOVWF  x7E
05454:  CLRF   x7F
05456:  MOVLW  01
05458:  MOVWF  x80
0545A:  MOVLB  0
0545C:  CALL   0EE8
....................        glcd_text57(22,5,TIEMPO_REPOSO, 1, 1); 
05460:  MOVLW  16
05462:  MOVLB  2
05464:  MOVWF  x7B
05466:  MOVLW  05
05468:  MOVWF  x7C
0546A:  MOVLW  02
0546C:  MOVWF  x7E
0546E:  MOVLW  2E
05470:  MOVWF  x7D
05472:  MOVLW  01
05474:  MOVWF  x7F
05476:  MOVWF  x80
05478:  MOVLB  0
0547A:  CALL   0FAA
....................        sprintf(Pgeneral5,"%02d",repos); 
0547E:  MOVLB  2
05480:  CLRF   x78
05482:  MOVLW  92
05484:  MOVWF  x77
05486:  MOVFF  17,27B
0548A:  MOVLW  01
0548C:  MOVWF  x7C
0548E:  MOVLB  0
05490:  CALL   1402
....................        glcd_text57(30,18,Pgeneral5, 2, 1);   //   linea que selecciona LA HORA 
05494:  MOVLW  1E
05496:  MOVLB  2
05498:  MOVWF  x7B
0549A:  MOVLW  12
0549C:  MOVWF  x7C
0549E:  CLRF   x7E
054A0:  MOVLW  92
054A2:  MOVWF  x7D
054A4:  MOVLW  02
054A6:  MOVWF  x7F
054A8:  MOVLW  01
054AA:  MOVWF  x80
054AC:  MOVLB  0
054AE:  CALL   0FAA
....................        glcd_text57(56,18,h, 2, 1); 
054B2:  MOVLW  38
054B4:  MOVLB  2
054B6:  MOVWF  x7B
054B8:  MOVLW  12
054BA:  MOVWF  x7C
054BC:  MOVLW  01
054BE:  MOVWF  x7E
054C0:  MOVLW  B5
054C2:  MOVWF  x7D
054C4:  MOVLW  02
054C6:  MOVWF  x7F
054C8:  MOVLW  01
054CA:  MOVWF  x80
054CC:  MOVLB  0
054CE:  CALL   0FAA
....................         
....................        
....................        glcd_rect(8,40,119,58,YES,ON);         //      recuadro 
054D2:  MOVLW  08
054D4:  MOVLB  2
054D6:  MOVWF  x7B
054D8:  MOVLW  28
054DA:  MOVWF  x7C
054DC:  MOVLW  77
054DE:  MOVWF  x7D
054E0:  MOVLW  3A
054E2:  MOVWF  x7E
054E4:  MOVLW  01
054E6:  MOVWF  x7F
054E8:  MOVWF  x80
054EA:  MOVLB  0
054EC:  CALL   0EE8
....................        glcd_text57(34,46,ESTABLECER, 1, 0);   // 
054F0:  MOVLW  22
054F2:  MOVLB  2
054F4:  MOVWF  x7B
054F6:  MOVLW  2E
054F8:  MOVWF  x7C
054FA:  MOVLW  01
054FC:  MOVWF  x7E
054FE:  MOVLW  A4
05500:  MOVWF  x7D
05502:  MOVLW  01
05504:  MOVWF  x7F
05506:  CLRF   x80
05508:  MOVLB  0
0550A:  CALL   0FAA
....................         
....................        reposset = repos; 
0550E:  MOVFF  17,18
....................         
....................    START40: 
....................     
....................         glcd_rect(30,34,50,35,YES,ON);   
05512:  MOVLW  1E
05514:  MOVLB  2
05516:  MOVWF  x7B
05518:  MOVLW  22
0551A:  MOVWF  x7C
0551C:  MOVLW  32
0551E:  MOVWF  x7D
05520:  MOVLW  23
05522:  MOVWF  x7E
05524:  MOVLW  01
05526:  MOVWF  x7F
05528:  MOVWF  x80
0552A:  MOVLB  0
0552C:  CALL   0EE8
....................         glcd_rect(55,34,65,35,YES,ON); 
05530:  MOVLW  37
05532:  MOVLB  2
05534:  MOVWF  x7B
05536:  MOVLW  22
05538:  MOVWF  x7C
0553A:  MOVLW  41
0553C:  MOVWF  x7D
0553E:  MOVLW  23
05540:  MOVWF  x7E
05542:  MOVLW  01
05544:  MOVWF  x7F
05546:  MOVWF  x80
05548:  MOVLB  0
0554A:  CALL   0EE8
....................        
....................         glcd_rect(52,34,73,35,YES,OFF);  
0554E:  MOVLW  34
05550:  MOVLB  2
05552:  MOVWF  x7B
05554:  MOVLW  22
05556:  MOVWF  x7C
05558:  MOVLW  49
0555A:  MOVWF  x7D
0555C:  MOVLW  23
0555E:  MOVWF  x7E
05560:  MOVLW  01
05562:  MOVWF  x7F
05564:  CLRF   x80
05566:  MOVLB  0
05568:  CALL   0EE8
....................         glcd_rect(85,34,107,35,YES,OFF); 
0556C:  MOVLW  55
0556E:  MOVLB  2
05570:  MOVWF  x7B
05572:  MOVLW  22
05574:  MOVWF  x7C
05576:  MOVLW  6B
05578:  MOVWF  x7D
0557A:  MOVLW  23
0557C:  MOVWF  x7E
0557E:  MOVLW  01
05580:  MOVWF  x7F
05582:  CLRF   x80
05584:  MOVLB  0
05586:  CALL   0EE8
....................       
....................         glcd_rect(9,41,118,57,NO,ON); 
0558A:  MOVLW  09
0558C:  MOVLB  2
0558E:  MOVWF  x7B
05590:  MOVLW  29
05592:  MOVWF  x7C
05594:  MOVLW  76
05596:  MOVWF  x7D
05598:  MOVLW  39
0559A:  MOVWF  x7E
0559C:  CLRF   x7F
0559E:  MOVLW  01
055A0:  MOVWF  x80
055A2:  MOVLB  0
055A4:  CALL   0EE8
....................              s = read_adc();     
055A8:  BSF    FC2.1
055AA:  BTFSC  FC2.1
055AC:  BRA    55AA
055AE:  MOVFF  FC4,04
....................              delay_ms(50); 
055B2:  MOVLW  32
055B4:  MOVLB  2
055B6:  MOVWF  x84
055B8:  MOVLB  0
055BA:  CALL   0D82
....................     
....................     
....................              while(s>230){ 
055BE:  MOVF   04,W
055C0:  SUBLW  E6
055C2:  BC    55DC
....................                    s = read_adc();     
055C4:  BSF    FC2.1
055C6:  BTFSC  FC2.1
055C8:  BRA    55C6
055CA:  MOVFF  FC4,04
....................                    delay_ms(50); 
055CE:  MOVLW  32
055D0:  MOVLB  2
055D2:  MOVWF  x84
055D4:  MOVLB  0
055D6:  CALL   0D82
....................              } 
055DA:  BRA    55BE
....................              if (s > 10 && s < 40){ // tecla arriba cuadrar hora 
055DC:  MOVF   04,W
055DE:  SUBLW  0A
055E0:  BC    5656
055E2:  MOVF   04,W
055E4:  SUBLW  27
055E6:  BNC   5656
....................                   
....................                  if(reposset > 99){ 
055E8:  MOVF   18,W
055EA:  SUBLW  63
055EC:  BC    55F2
....................                      reposset = 99;} 
055EE:  MOVLW  63
055F0:  MOVWF  18
....................                  reposset ++; 
055F2:  INCF   18,F
....................                   
....................                  glcd_rect(30,18,50,32,YES,OFF);// linea 
055F4:  MOVLW  1E
055F6:  MOVLB  2
055F8:  MOVWF  x7B
055FA:  MOVLW  12
055FC:  MOVWF  x7C
055FE:  MOVLW  32
05600:  MOVWF  x7D
05602:  MOVLW  20
05604:  MOVWF  x7E
05606:  MOVLW  01
05608:  MOVWF  x7F
0560A:  CLRF   x80
0560C:  MOVLB  0
0560E:  CALL   0EE8
....................                  sprintf(Pgeneral5,"%02d", reposset); 
05612:  MOVLB  2
05614:  CLRF   x78
05616:  MOVLW  92
05618:  MOVWF  x77
0561A:  MOVFF  18,27B
0561E:  MOVLW  01
05620:  MOVWF  x7C
05622:  MOVLB  0
05624:  CALL   1402
....................                  glcd_text57(30,18,Pgeneral5, 2, 1); 
05628:  MOVLW  1E
0562A:  MOVLB  2
0562C:  MOVWF  x7B
0562E:  MOVLW  12
05630:  MOVWF  x7C
05632:  CLRF   x7E
05634:  MOVLW  92
05636:  MOVWF  x7D
05638:  MOVLW  02
0563A:  MOVWF  x7F
0563C:  MOVLW  01
0563E:  MOVWF  x80
05640:  MOVLB  0
05642:  CALL   0FAA
....................                  delay_ms(100); 
05646:  MOVLW  64
05648:  MOVLB  2
0564A:  MOVWF  x84
0564C:  MOVLB  0
0564E:  CALL   0D82
....................                  goto START40; 
05652:  BRA    5512
....................              } 
....................                else if(s > 60 && s < 90){ 
05654:  BRA    596C
05656:  MOVF   04,W
05658:  SUBLW  3C
0565A:  BC    56CE
0565C:  MOVF   04,W
0565E:  SUBLW  59
05660:  BNC   56CE
....................                   
....................                  if(reposset < 1 ) 
05662:  MOVF   18,F
05664:  BNZ   566A
....................                      reposset = 1; 
05666:  MOVLW  01
05668:  MOVWF  18
....................                  reposset --; 
0566A:  DECF   18,F
....................                  glcd_rect(30,18,50,32,YES,OFF); 
0566C:  MOVLW  1E
0566E:  MOVLB  2
05670:  MOVWF  x7B
05672:  MOVLW  12
05674:  MOVWF  x7C
05676:  MOVLW  32
05678:  MOVWF  x7D
0567A:  MOVLW  20
0567C:  MOVWF  x7E
0567E:  MOVLW  01
05680:  MOVWF  x7F
05682:  CLRF   x80
05684:  MOVLB  0
05686:  CALL   0EE8
....................                  sprintf(Pgeneral5,"%02d", reposset); 
0568A:  MOVLB  2
0568C:  CLRF   x78
0568E:  MOVLW  92
05690:  MOVWF  x77
05692:  MOVFF  18,27B
05696:  MOVLW  01
05698:  MOVWF  x7C
0569A:  MOVLB  0
0569C:  CALL   1402
....................                  glcd_text57(30,18,Pgeneral5, 2, 1); 
056A0:  MOVLW  1E
056A2:  MOVLB  2
056A4:  MOVWF  x7B
056A6:  MOVLW  12
056A8:  MOVWF  x7C
056AA:  CLRF   x7E
056AC:  MOVLW  92
056AE:  MOVWF  x7D
056B0:  MOVLW  02
056B2:  MOVWF  x7F
056B4:  MOVLW  01
056B6:  MOVWF  x80
056B8:  MOVLB  0
056BA:  CALL   0FAA
....................                  delay_ms(100); 
056BE:  MOVLW  64
056C0:  MOVLB  2
056C2:  MOVWF  x84
056C4:  MOVLB  0
056C6:  CALL   0D82
....................                  goto START40; 
056CA:  BRA    5512
....................              } 
....................          else if(s > 165 &&  s < 185){ 
056CC:  BRA    596C
056CE:  MOVF   04,W
056D0:  SUBLW  A5
056D2:  BTFSC  FD8.0
056D4:  BRA    596A
056D6:  MOVF   04,W
056D8:  SUBLW  B8
056DA:  BTFSS  FD8.0
056DC:  BRA    596A
....................           
....................          START60: 
....................                   
....................                 glcd_rect(30,34,50,35,YES,OFF);   
056DE:  MOVLW  1E
056E0:  MOVLB  2
056E2:  MOVWF  x7B
056E4:  MOVLW  22
056E6:  MOVWF  x7C
056E8:  MOVLW  32
056EA:  MOVWF  x7D
056EC:  MOVLW  23
056EE:  MOVWF  x7E
056F0:  MOVLW  01
056F2:  MOVWF  x7F
056F4:  CLRF   x80
056F6:  MOVLB  0
056F8:  CALL   0EE8
....................                 glcd_rect(55,34,65,35,YES,ON); 
056FC:  MOVLW  37
056FE:  MOVLB  2
05700:  MOVWF  x7B
05702:  MOVLW  22
05704:  MOVWF  x7C
05706:  MOVLW  41
05708:  MOVWF  x7D
0570A:  MOVLW  23
0570C:  MOVWF  x7E
0570E:  MOVLW  01
05710:  MOVWF  x7F
05712:  MOVWF  x80
05714:  MOVLB  0
05716:  CALL   0EE8
....................                 
....................                   
....................                  delay_ms(200); 
0571A:  MOVLW  C8
0571C:  MOVLB  2
0571E:  MOVWF  x84
05720:  MOVLB  0
05722:  CALL   0D82
....................                  s = read_adc();     
05726:  BSF    FC2.1
05728:  BTFSC  FC2.1
0572A:  BRA    5728
0572C:  MOVFF  FC4,04
....................                  delay_ms(50); 
05730:  MOVLW  32
05732:  MOVLB  2
05734:  MOVWF  x84
05736:  MOVLB  0
05738:  CALL   0D82
....................                  while(s>230){ 
0573C:  MOVF   04,W
0573E:  SUBLW  E6
05740:  BC    575A
....................                    s = read_adc();     
05742:  BSF    FC2.1
05744:  BTFSC  FC2.1
05746:  BRA    5744
05748:  MOVFF  FC4,04
....................                    delay_ms(50); 
0574C:  MOVLW  32
0574E:  MOVLB  2
05750:  MOVWF  x84
05752:  MOVLB  0
05754:  CALL   0D82
....................                    } 
05758:  BRA    573C
....................                   if (s > 10 && s < 40){ 
0575A:  MOVF   04,W
0575C:  SUBLW  0A
0575E:  BC    57C8
05760:  MOVF   04,W
05762:  SUBLW  27
05764:  BNC   57C8
....................                       
....................                      tim = 1; 
05766:  MOVLW  01
05768:  MOVWF  2C
....................                      glcd_text57(56,18,m, 2, 0); 
0576A:  MOVLW  38
0576C:  MOVLB  2
0576E:  MOVWF  x7B
05770:  MOVLW  12
05772:  MOVWF  x7C
05774:  MOVLW  01
05776:  MOVWF  x7E
05778:  MOVLW  B7
0577A:  MOVWF  x7D
0577C:  MOVLW  02
0577E:  MOVWF  x7F
05780:  CLRF   x80
05782:  MOVLB  0
05784:  CALL   0FAA
....................                      glcd_rect(55,34,65,35,YES,ON); 
05788:  MOVLW  37
0578A:  MOVLB  2
0578C:  MOVWF  x7B
0578E:  MOVLW  22
05790:  MOVWF  x7C
05792:  MOVLW  41
05794:  MOVWF  x7D
05796:  MOVLW  23
05798:  MOVWF  x7E
0579A:  MOVLW  01
0579C:  MOVWF  x7F
0579E:  MOVWF  x80
057A0:  MOVLB  0
057A2:  CALL   0EE8
....................                      glcd_text57(56,18,h, 2, 1); 
057A6:  MOVLW  38
057A8:  MOVLB  2
057AA:  MOVWF  x7B
057AC:  MOVLW  12
057AE:  MOVWF  x7C
057B0:  MOVLW  01
057B2:  MOVWF  x7E
057B4:  MOVLW  B5
057B6:  MOVWF  x7D
057B8:  MOVLW  02
057BA:  MOVWF  x7F
057BC:  MOVLW  01
057BE:  MOVWF  x80
057C0:  MOVLB  0
057C2:  CALL   0FAA
....................                      goto START60; 
057C6:  BRA    56DE
....................                   } 
....................                    
....................                    if (s > 60 && s < 90){ 
057C8:  MOVF   04,W
057CA:  SUBLW  3C
057CC:  BC    5834
057CE:  MOVF   04,W
057D0:  SUBLW  59
057D2:  BNC   5834
....................                       
....................                      tim = 0; 
057D4:  CLRF   2C
....................                      glcd_text57(56,18,h, 2, 0); 
057D6:  MOVLW  38
057D8:  MOVLB  2
057DA:  MOVWF  x7B
057DC:  MOVLW  12
057DE:  MOVWF  x7C
057E0:  MOVLW  01
057E2:  MOVWF  x7E
057E4:  MOVLW  B5
057E6:  MOVWF  x7D
057E8:  MOVLW  02
057EA:  MOVWF  x7F
057EC:  CLRF   x80
057EE:  MOVLB  0
057F0:  CALL   0FAA
....................                      glcd_rect(55,34,65,35,YES,ON); 
057F4:  MOVLW  37
057F6:  MOVLB  2
057F8:  MOVWF  x7B
057FA:  MOVLW  22
057FC:  MOVWF  x7C
057FE:  MOVLW  41
05800:  MOVWF  x7D
05802:  MOVLW  23
05804:  MOVWF  x7E
05806:  MOVLW  01
05808:  MOVWF  x7F
0580A:  MOVWF  x80
0580C:  MOVLB  0
0580E:  CALL   0EE8
....................                      glcd_text57(56,18,m, 2, 1); 
05812:  MOVLW  38
05814:  MOVLB  2
05816:  MOVWF  x7B
05818:  MOVLW  12
0581A:  MOVWF  x7C
0581C:  MOVLW  01
0581E:  MOVWF  x7E
05820:  MOVLW  B7
05822:  MOVWF  x7D
05824:  MOVLW  02
05826:  MOVWF  x7F
05828:  MOVLW  01
0582A:  MOVWF  x80
0582C:  MOVLB  0
0582E:  CALL   0FAA
....................                      goto START60; 
05832:  BRA    56DE
....................                   } 
....................                   if(s > 115 && s < 135){ 
05834:  MOVF   04,W
05836:  SUBLW  73
05838:  BC    587E
0583A:  MOVF   04,W
0583C:  SUBLW  86
0583E:  BNC   587E
....................                     glcd_rect(30,34,50,35,YES,ON); 
05840:  MOVLW  1E
05842:  MOVLB  2
05844:  MOVWF  x7B
05846:  MOVLW  22
05848:  MOVWF  x7C
0584A:  MOVLW  32
0584C:  MOVWF  x7D
0584E:  MOVLW  23
05850:  MOVWF  x7E
05852:  MOVLW  01
05854:  MOVWF  x7F
05856:  MOVWF  x80
05858:  MOVLB  0
0585A:  CALL   0EE8
....................                     glcd_rect(55,34,65,35,YES,OFF); 
0585E:  MOVLW  37
05860:  MOVLB  2
05862:  MOVWF  x7B
05864:  MOVLW  22
05866:  MOVWF  x7C
05868:  MOVLW  41
0586A:  MOVWF  x7D
0586C:  MOVLW  23
0586E:  MOVWF  x7E
05870:  MOVLW  01
05872:  MOVWF  x7F
05874:  CLRF   x80
05876:  MOVLB  0
05878:  CALL   0EE8
....................                         goto START40;} 
0587C:  BRA    5512
....................                   
....................                   
....................                  if(s > 165 &&  s < 185){ 
0587E:  MOVF   04,W
05880:  SUBLW  A5
05882:  BTFSC  FD8.0
05884:  BRA    5966
05886:  MOVF   04,W
05888:  SUBLW  B8
0588A:  BTFSS  FD8.0
0588C:  BRA    5966
....................                   
....................                   START70: 
....................                     glcd_rect(55,34,65,35,YES,OFF); 
0588E:  MOVLW  37
05890:  MOVLB  2
05892:  MOVWF  x7B
05894:  MOVLW  22
05896:  MOVWF  x7C
05898:  MOVLW  41
0589A:  MOVWF  x7D
0589C:  MOVLW  23
0589E:  MOVWF  x7E
058A0:  MOVLW  01
058A2:  MOVWF  x7F
058A4:  CLRF   x80
058A6:  MOVLB  0
058A8:  CALL   0EE8
....................                     glcd_rect(9,41,118,57,NO,OFF); 
058AC:  MOVLW  09
058AE:  MOVLB  2
058B0:  MOVWF  x7B
058B2:  MOVLW  29
058B4:  MOVWF  x7C
058B6:  MOVLW  76
058B8:  MOVWF  x7D
058BA:  MOVLW  39
058BC:  MOVWF  x7E
058BE:  CLRF   x7F
058C0:  CLRF   x80
058C2:  MOVLB  0
058C4:  CALL   0EE8
....................                     
....................                     delay_ms(200); 
058C8:  MOVLW  C8
058CA:  MOVLB  2
058CC:  MOVWF  x84
058CE:  MOVLB  0
058D0:  CALL   0D82
....................                     s = read_adc();     
058D4:  BSF    FC2.1
058D6:  BTFSC  FC2.1
058D8:  BRA    58D6
058DA:  MOVFF  FC4,04
....................                     delay_ms(50); 
058DE:  MOVLW  32
058E0:  MOVLB  2
058E2:  MOVWF  x84
058E4:  MOVLB  0
058E6:  CALL   0D82
....................                     while(s>230){ 
058EA:  MOVF   04,W
058EC:  SUBLW  E6
058EE:  BC    5908
....................                        s = read_adc();     
058F0:  BSF    FC2.1
058F2:  BTFSC  FC2.1
058F4:  BRA    58F2
058F6:  MOVFF  FC4,04
....................                        delay_ms(50); 
058FA:  MOVLW  32
058FC:  MOVLB  2
058FE:  MOVWF  x84
05900:  MOVLB  0
05902:  CALL   0D82
....................                     } 
05906:  BRA    58EA
....................                     if(s > 195 && s < 225) 
05908:  MOVF   04,W
0590A:  SUBLW  C3
0590C:  BC    5916
0590E:  MOVF   04,W
05910:  SUBLW  E0
05912:  BNC   5916
....................                         goto SET_REPOSO; 
05914:  BRA    596C
....................                          
....................                     if(s > 115 && s < 135){ 
05916:  MOVF   04,W
05918:  SUBLW  73
0591A:  BC    5962
0591C:  MOVF   04,W
0591E:  SUBLW  86
05920:  BNC   5962
....................                      glcd_rect(55,34,65,35,YES,ON); 
05922:  MOVLW  37
05924:  MOVLB  2
05926:  MOVWF  x7B
05928:  MOVLW  22
0592A:  MOVWF  x7C
0592C:  MOVLW  41
0592E:  MOVWF  x7D
05930:  MOVLW  23
05932:  MOVWF  x7E
05934:  MOVLW  01
05936:  MOVWF  x7F
05938:  MOVWF  x80
0593A:  MOVLB  0
0593C:  CALL   0EE8
....................                      glcd_rect(9,41,118,57,NO,ON); 
05940:  MOVLW  09
05942:  MOVLB  2
05944:  MOVWF  x7B
05946:  MOVLW  29
05948:  MOVWF  x7C
0594A:  MOVLW  76
0594C:  MOVWF  x7D
0594E:  MOVLW  39
05950:  MOVWF  x7E
05952:  CLRF   x7F
05954:  MOVLW  01
05956:  MOVWF  x80
05958:  MOVLB  0
0595A:  CALL   0EE8
....................                         goto START60; 
0595E:  BRA    56DE
....................                  }    
....................                    else goto START70; 
05960:  BRA    5964
05962:  BRA    588E
....................                  } 
....................                  else 
05964:  BRA    5968
....................                      goto START70; 
05966:  BRA    588E
....................              }   
....................                     
....................              else  
05968:  BRA    596C
....................                  goto START40; 
0596A:  BRA    5512
....................              
....................      SET_REPOSO: 
....................           
....................          repos = reposset; 
0596C:  MOVFF  18,17
....................          goto CONF_TEMPORIZADOR; 
05970:  GOTO   5030
....................         
....................      CONF_RIEGO2: 
....................       
....................       
....................       
....................        glcd_fillScreen(0); 
05974:  MOVLB  2
05976:  CLRF   x7C
05978:  MOVLB  0
0597A:  CALL   0A62
....................        glcd_rect(0,0,127,63,NO,ON); 
0597E:  MOVLB  2
05980:  CLRF   x7B
05982:  CLRF   x7C
05984:  MOVLW  7F
05986:  MOVWF  x7D
05988:  MOVLW  3F
0598A:  MOVWF  x7E
0598C:  CLRF   x7F
0598E:  MOVLW  01
05990:  MOVWF  x80
05992:  MOVLB  0
05994:  CALL   0EE8
....................        glcd_rect(1,1,126,62,NO,ON); 
05998:  MOVLW  01
0599A:  MOVLB  2
0599C:  MOVWF  x7B
0599E:  MOVWF  x7C
059A0:  MOVLW  7E
059A2:  MOVWF  x7D
059A4:  MOVLW  3E
059A6:  MOVWF  x7E
059A8:  CLRF   x7F
059AA:  MOVLW  01
059AC:  MOVWF  x80
059AE:  MOVLB  0
059B0:  CALL   0EE8
....................        glcd_text57(22,5,TIEMPO_RIEGO, 1, 1); 
059B4:  MOVLW  16
059B6:  MOVLB  2
059B8:  MOVWF  x7B
059BA:  MOVLW  05
059BC:  MOVWF  x7C
059BE:  MOVLW  02
059C0:  MOVWF  x7E
059C2:  MOVLW  3F
059C4:  MOVWF  x7D
059C6:  MOVLW  01
059C8:  MOVWF  x7F
059CA:  MOVWF  x80
059CC:  MOVLB  0
059CE:  CALL   0FAA
....................        sprintf(Pgeneral5,"%02d",rieg); 
059D2:  MOVLB  2
059D4:  CLRF   x78
059D6:  MOVLW  92
059D8:  MOVWF  x77
059DA:  MOVFF  19,27B
059DE:  MOVLW  01
059E0:  MOVWF  x7C
059E2:  MOVLB  0
059E4:  CALL   1402
....................        glcd_text57(30,18,Pgeneral5, 2, 1);   //   linea que selecciona LA HORA 
059E8:  MOVLW  1E
059EA:  MOVLB  2
059EC:  MOVWF  x7B
059EE:  MOVLW  12
059F0:  MOVWF  x7C
059F2:  CLRF   x7E
059F4:  MOVLW  92
059F6:  MOVWF  x7D
059F8:  MOVLW  02
059FA:  MOVWF  x7F
059FC:  MOVLW  01
059FE:  MOVWF  x80
05A00:  MOVLB  0
05A02:  CALL   0FAA
....................        glcd_text57(56,18,h, 2, 1); 
05A06:  MOVLW  38
05A08:  MOVLB  2
05A0A:  MOVWF  x7B
05A0C:  MOVLW  12
05A0E:  MOVWF  x7C
05A10:  MOVLW  01
05A12:  MOVWF  x7E
05A14:  MOVLW  B5
05A16:  MOVWF  x7D
05A18:  MOVLW  02
05A1A:  MOVWF  x7F
05A1C:  MOVLW  01
05A1E:  MOVWF  x80
05A20:  MOVLB  0
05A22:  CALL   0FAA
....................         
....................        
....................        glcd_rect(8,40,119,58,YES,ON);         //      recuadro 
05A26:  MOVLW  08
05A28:  MOVLB  2
05A2A:  MOVWF  x7B
05A2C:  MOVLW  28
05A2E:  MOVWF  x7C
05A30:  MOVLW  77
05A32:  MOVWF  x7D
05A34:  MOVLW  3A
05A36:  MOVWF  x7E
05A38:  MOVLW  01
05A3A:  MOVWF  x7F
05A3C:  MOVWF  x80
05A3E:  MOVLB  0
05A40:  CALL   0EE8
....................        glcd_text57(34,46,ESTABLECER, 1, 0);   // 
05A44:  MOVLW  22
05A46:  MOVLB  2
05A48:  MOVWF  x7B
05A4A:  MOVLW  2E
05A4C:  MOVWF  x7C
05A4E:  MOVLW  01
05A50:  MOVWF  x7E
05A52:  MOVLW  A4
05A54:  MOVWF  x7D
05A56:  MOVLW  01
05A58:  MOVWF  x7F
05A5A:  CLRF   x80
05A5C:  MOVLB  0
05A5E:  CALL   0FAA
....................         
....................        riegset = rieg; 
05A62:  MOVFF  19,1A
....................         
....................    STARTRIEGO: 
....................     
....................         glcd_rect(30,34,50,35,YES,ON);   
05A66:  MOVLW  1E
05A68:  MOVLB  2
05A6A:  MOVWF  x7B
05A6C:  MOVLW  22
05A6E:  MOVWF  x7C
05A70:  MOVLW  32
05A72:  MOVWF  x7D
05A74:  MOVLW  23
05A76:  MOVWF  x7E
05A78:  MOVLW  01
05A7A:  MOVWF  x7F
05A7C:  MOVWF  x80
05A7E:  MOVLB  0
05A80:  CALL   0EE8
....................         glcd_rect(55,34,65,35,YES,ON); 
05A84:  MOVLW  37
05A86:  MOVLB  2
05A88:  MOVWF  x7B
05A8A:  MOVLW  22
05A8C:  MOVWF  x7C
05A8E:  MOVLW  41
05A90:  MOVWF  x7D
05A92:  MOVLW  23
05A94:  MOVWF  x7E
05A96:  MOVLW  01
05A98:  MOVWF  x7F
05A9A:  MOVWF  x80
05A9C:  MOVLB  0
05A9E:  CALL   0EE8
....................        
....................         glcd_rect(52,34,73,35,YES,OFF);  
05AA2:  MOVLW  34
05AA4:  MOVLB  2
05AA6:  MOVWF  x7B
05AA8:  MOVLW  22
05AAA:  MOVWF  x7C
05AAC:  MOVLW  49
05AAE:  MOVWF  x7D
05AB0:  MOVLW  23
05AB2:  MOVWF  x7E
05AB4:  MOVLW  01
05AB6:  MOVWF  x7F
05AB8:  CLRF   x80
05ABA:  MOVLB  0
05ABC:  CALL   0EE8
....................         glcd_rect(85,34,107,35,YES,OFF); 
05AC0:  MOVLW  55
05AC2:  MOVLB  2
05AC4:  MOVWF  x7B
05AC6:  MOVLW  22
05AC8:  MOVWF  x7C
05ACA:  MOVLW  6B
05ACC:  MOVWF  x7D
05ACE:  MOVLW  23
05AD0:  MOVWF  x7E
05AD2:  MOVLW  01
05AD4:  MOVWF  x7F
05AD6:  CLRF   x80
05AD8:  MOVLB  0
05ADA:  CALL   0EE8
....................       
....................         glcd_rect(9,41,118,57,NO,ON); 
05ADE:  MOVLW  09
05AE0:  MOVLB  2
05AE2:  MOVWF  x7B
05AE4:  MOVLW  29
05AE6:  MOVWF  x7C
05AE8:  MOVLW  76
05AEA:  MOVWF  x7D
05AEC:  MOVLW  39
05AEE:  MOVWF  x7E
05AF0:  CLRF   x7F
05AF2:  MOVLW  01
05AF4:  MOVWF  x80
05AF6:  MOVLB  0
05AF8:  CALL   0EE8
....................              s = read_adc();     
05AFC:  BSF    FC2.1
05AFE:  BTFSC  FC2.1
05B00:  BRA    5AFE
05B02:  MOVFF  FC4,04
....................              delay_ms(50); 
05B06:  MOVLW  32
05B08:  MOVLB  2
05B0A:  MOVWF  x84
05B0C:  MOVLB  0
05B0E:  CALL   0D82
....................     
....................     
....................              while(s>230){ 
05B12:  MOVF   04,W
05B14:  SUBLW  E6
05B16:  BC    5B30
....................                    s = read_adc();     
05B18:  BSF    FC2.1
05B1A:  BTFSC  FC2.1
05B1C:  BRA    5B1A
05B1E:  MOVFF  FC4,04
....................                    delay_ms(50); 
05B22:  MOVLW  32
05B24:  MOVLB  2
05B26:  MOVWF  x84
05B28:  MOVLB  0
05B2A:  CALL   0D82
....................              } 
05B2E:  BRA    5B12
....................              if (s > 10 && s < 40){ // tecla arriba cuadrar hora 
05B30:  MOVF   04,W
05B32:  SUBLW  0A
05B34:  BC    5BAA
05B36:  MOVF   04,W
05B38:  SUBLW  27
05B3A:  BNC   5BAA
....................                   
....................                  if(riegset > 99){ 
05B3C:  MOVF   1A,W
05B3E:  SUBLW  63
05B40:  BC    5B46
....................                      riegset = 99;} 
05B42:  MOVLW  63
05B44:  MOVWF  1A
....................                  riegset ++; 
05B46:  INCF   1A,F
....................                   
....................                  glcd_rect(30,18,50,32,YES,OFF);// linea 
05B48:  MOVLW  1E
05B4A:  MOVLB  2
05B4C:  MOVWF  x7B
05B4E:  MOVLW  12
05B50:  MOVWF  x7C
05B52:  MOVLW  32
05B54:  MOVWF  x7D
05B56:  MOVLW  20
05B58:  MOVWF  x7E
05B5A:  MOVLW  01
05B5C:  MOVWF  x7F
05B5E:  CLRF   x80
05B60:  MOVLB  0
05B62:  CALL   0EE8
....................                  sprintf(Pgeneral5,"%02d", riegset); 
05B66:  MOVLB  2
05B68:  CLRF   x78
05B6A:  MOVLW  92
05B6C:  MOVWF  x77
05B6E:  MOVFF  1A,27B
05B72:  MOVLW  01
05B74:  MOVWF  x7C
05B76:  MOVLB  0
05B78:  CALL   1402
....................                  glcd_text57(30,18,Pgeneral5, 2, 1); 
05B7C:  MOVLW  1E
05B7E:  MOVLB  2
05B80:  MOVWF  x7B
05B82:  MOVLW  12
05B84:  MOVWF  x7C
05B86:  CLRF   x7E
05B88:  MOVLW  92
05B8A:  MOVWF  x7D
05B8C:  MOVLW  02
05B8E:  MOVWF  x7F
05B90:  MOVLW  01
05B92:  MOVWF  x80
05B94:  MOVLB  0
05B96:  CALL   0FAA
....................                  delay_ms(100); 
05B9A:  MOVLW  64
05B9C:  MOVLB  2
05B9E:  MOVWF  x84
05BA0:  MOVLB  0
05BA2:  CALL   0D82
....................                  goto STARTRIEGO; 
05BA6:  BRA    5A66
....................              } 
....................                else if(s > 60 && s < 90){ 
05BA8:  BRA    5EC2
05BAA:  MOVF   04,W
05BAC:  SUBLW  3C
05BAE:  BC    5C22
05BB0:  MOVF   04,W
05BB2:  SUBLW  59
05BB4:  BNC   5C22
....................                   
....................                  if(riegset < 1 ) 
05BB6:  MOVF   1A,F
05BB8:  BNZ   5BBE
....................                      riegset = 1; 
05BBA:  MOVLW  01
05BBC:  MOVWF  1A
....................                  riegset --; 
05BBE:  DECF   1A,F
....................                  glcd_rect(30,18,50,32,YES,OFF); 
05BC0:  MOVLW  1E
05BC2:  MOVLB  2
05BC4:  MOVWF  x7B
05BC6:  MOVLW  12
05BC8:  MOVWF  x7C
05BCA:  MOVLW  32
05BCC:  MOVWF  x7D
05BCE:  MOVLW  20
05BD0:  MOVWF  x7E
05BD2:  MOVLW  01
05BD4:  MOVWF  x7F
05BD6:  CLRF   x80
05BD8:  MOVLB  0
05BDA:  CALL   0EE8
....................                  sprintf(Pgeneral5,"%02d", riegset); 
05BDE:  MOVLB  2
05BE0:  CLRF   x78
05BE2:  MOVLW  92
05BE4:  MOVWF  x77
05BE6:  MOVFF  1A,27B
05BEA:  MOVLW  01
05BEC:  MOVWF  x7C
05BEE:  MOVLB  0
05BF0:  CALL   1402
....................                  glcd_text57(30,18,Pgeneral5, 2, 1); 
05BF4:  MOVLW  1E
05BF6:  MOVLB  2
05BF8:  MOVWF  x7B
05BFA:  MOVLW  12
05BFC:  MOVWF  x7C
05BFE:  CLRF   x7E
05C00:  MOVLW  92
05C02:  MOVWF  x7D
05C04:  MOVLW  02
05C06:  MOVWF  x7F
05C08:  MOVLW  01
05C0A:  MOVWF  x80
05C0C:  MOVLB  0
05C0E:  CALL   0FAA
....................                  delay_ms(100); 
05C12:  MOVLW  64
05C14:  MOVLB  2
05C16:  MOVWF  x84
05C18:  MOVLB  0
05C1A:  CALL   0D82
....................                  goto STARTRIEGO; 
05C1E:  BRA    5A66
....................              } 
....................          else if(s > 165 &&  s < 185){ 
05C20:  BRA    5EC2
05C22:  MOVF   04,W
05C24:  SUBLW  A5
05C26:  BTFSC  FD8.0
05C28:  BRA    5EC0
05C2A:  MOVF   04,W
05C2C:  SUBLW  B8
05C2E:  BTFSS  FD8.0
05C30:  BRA    5EC0
....................           
....................          STARTRIEGO1: 
....................                   
....................                 glcd_rect(30,34,50,35,YES,OFF);   
05C32:  MOVLW  1E
05C34:  MOVLB  2
05C36:  MOVWF  x7B
05C38:  MOVLW  22
05C3A:  MOVWF  x7C
05C3C:  MOVLW  32
05C3E:  MOVWF  x7D
05C40:  MOVLW  23
05C42:  MOVWF  x7E
05C44:  MOVLW  01
05C46:  MOVWF  x7F
05C48:  CLRF   x80
05C4A:  MOVLB  0
05C4C:  CALL   0EE8
....................                 glcd_rect(55,34,65,35,YES,ON); 
05C50:  MOVLW  37
05C52:  MOVLB  2
05C54:  MOVWF  x7B
05C56:  MOVLW  22
05C58:  MOVWF  x7C
05C5A:  MOVLW  41
05C5C:  MOVWF  x7D
05C5E:  MOVLW  23
05C60:  MOVWF  x7E
05C62:  MOVLW  01
05C64:  MOVWF  x7F
05C66:  MOVWF  x80
05C68:  MOVLB  0
05C6A:  CALL   0EE8
....................                 
....................                   
....................                  delay_ms(200); 
05C6E:  MOVLW  C8
05C70:  MOVLB  2
05C72:  MOVWF  x84
05C74:  MOVLB  0
05C76:  CALL   0D82
....................                  s = read_adc();     
05C7A:  BSF    FC2.1
05C7C:  BTFSC  FC2.1
05C7E:  BRA    5C7C
05C80:  MOVFF  FC4,04
....................                  delay_ms(50); 
05C84:  MOVLW  32
05C86:  MOVLB  2
05C88:  MOVWF  x84
05C8A:  MOVLB  0
05C8C:  CALL   0D82
....................                  while(s>230){ 
05C90:  MOVF   04,W
05C92:  SUBLW  E6
05C94:  BC    5CAE
....................                    s = read_adc();     
05C96:  BSF    FC2.1
05C98:  BTFSC  FC2.1
05C9A:  BRA    5C98
05C9C:  MOVFF  FC4,04
....................                    delay_ms(50); 
05CA0:  MOVLW  32
05CA2:  MOVLB  2
05CA4:  MOVWF  x84
05CA6:  MOVLB  0
05CA8:  CALL   0D82
....................                    } 
05CAC:  BRA    5C90
....................                   if (s > 10 && s < 40){ 
05CAE:  MOVF   04,W
05CB0:  SUBLW  0A
05CB2:  BC    5D1C
05CB4:  MOVF   04,W
05CB6:  SUBLW  27
05CB8:  BNC   5D1C
....................                       
....................                      tim2 = 1; 
05CBA:  MOVLW  01
05CBC:  MOVWF  2D
....................                      glcd_text57(56,18,m, 2, 0); 
05CBE:  MOVLW  38
05CC0:  MOVLB  2
05CC2:  MOVWF  x7B
05CC4:  MOVLW  12
05CC6:  MOVWF  x7C
05CC8:  MOVLW  01
05CCA:  MOVWF  x7E
05CCC:  MOVLW  B7
05CCE:  MOVWF  x7D
05CD0:  MOVLW  02
05CD2:  MOVWF  x7F
05CD4:  CLRF   x80
05CD6:  MOVLB  0
05CD8:  CALL   0FAA
....................                      glcd_rect(55,34,65,35,YES,ON); 
05CDC:  MOVLW  37
05CDE:  MOVLB  2
05CE0:  MOVWF  x7B
05CE2:  MOVLW  22
05CE4:  MOVWF  x7C
05CE6:  MOVLW  41
05CE8:  MOVWF  x7D
05CEA:  MOVLW  23
05CEC:  MOVWF  x7E
05CEE:  MOVLW  01
05CF0:  MOVWF  x7F
05CF2:  MOVWF  x80
05CF4:  MOVLB  0
05CF6:  CALL   0EE8
....................                      glcd_text57(56,18,h, 2, 1); 
05CFA:  MOVLW  38
05CFC:  MOVLB  2
05CFE:  MOVWF  x7B
05D00:  MOVLW  12
05D02:  MOVWF  x7C
05D04:  MOVLW  01
05D06:  MOVWF  x7E
05D08:  MOVLW  B5
05D0A:  MOVWF  x7D
05D0C:  MOVLW  02
05D0E:  MOVWF  x7F
05D10:  MOVLW  01
05D12:  MOVWF  x80
05D14:  MOVLB  0
05D16:  CALL   0FAA
....................                      goto STARTRIEGO1; 
05D1A:  BRA    5C32
....................                   } 
....................                    
....................                    if (s > 60 && s < 90){ 
05D1C:  MOVF   04,W
05D1E:  SUBLW  3C
05D20:  BC    5D88
05D22:  MOVF   04,W
05D24:  SUBLW  59
05D26:  BNC   5D88
....................                       
....................                      tim2 = 0; 
05D28:  CLRF   2D
....................                        glcd_text57(56,18,h, 2, 0); 
05D2A:  MOVLW  38
05D2C:  MOVLB  2
05D2E:  MOVWF  x7B
05D30:  MOVLW  12
05D32:  MOVWF  x7C
05D34:  MOVLW  01
05D36:  MOVWF  x7E
05D38:  MOVLW  B5
05D3A:  MOVWF  x7D
05D3C:  MOVLW  02
05D3E:  MOVWF  x7F
05D40:  CLRF   x80
05D42:  MOVLB  0
05D44:  CALL   0FAA
....................                      glcd_rect(55,34,65,35,YES,ON); 
05D48:  MOVLW  37
05D4A:  MOVLB  2
05D4C:  MOVWF  x7B
05D4E:  MOVLW  22
05D50:  MOVWF  x7C
05D52:  MOVLW  41
05D54:  MOVWF  x7D
05D56:  MOVLW  23
05D58:  MOVWF  x7E
05D5A:  MOVLW  01
05D5C:  MOVWF  x7F
05D5E:  MOVWF  x80
05D60:  MOVLB  0
05D62:  CALL   0EE8
....................                      glcd_text57(56,18,m, 2, 1); 
05D66:  MOVLW  38
05D68:  MOVLB  2
05D6A:  MOVWF  x7B
05D6C:  MOVLW  12
05D6E:  MOVWF  x7C
05D70:  MOVLW  01
05D72:  MOVWF  x7E
05D74:  MOVLW  B7
05D76:  MOVWF  x7D
05D78:  MOVLW  02
05D7A:  MOVWF  x7F
05D7C:  MOVLW  01
05D7E:  MOVWF  x80
05D80:  MOVLB  0
05D82:  CALL   0FAA
....................                      goto STARTRIEGO1; 
05D86:  BRA    5C32
....................                   } 
....................                   if(s > 115 && s < 135){ 
05D88:  MOVF   04,W
05D8A:  SUBLW  73
05D8C:  BC    5DD2
05D8E:  MOVF   04,W
05D90:  SUBLW  86
05D92:  BNC   5DD2
....................                     glcd_rect(30,34,50,35,YES,ON); 
05D94:  MOVLW  1E
05D96:  MOVLB  2
05D98:  MOVWF  x7B
05D9A:  MOVLW  22
05D9C:  MOVWF  x7C
05D9E:  MOVLW  32
05DA0:  MOVWF  x7D
05DA2:  MOVLW  23
05DA4:  MOVWF  x7E
05DA6:  MOVLW  01
05DA8:  MOVWF  x7F
05DAA:  MOVWF  x80
05DAC:  MOVLB  0
05DAE:  CALL   0EE8
....................                     glcd_rect(55,34,65,35,YES,OFF); 
05DB2:  MOVLW  37
05DB4:  MOVLB  2
05DB6:  MOVWF  x7B
05DB8:  MOVLW  22
05DBA:  MOVWF  x7C
05DBC:  MOVLW  41
05DBE:  MOVWF  x7D
05DC0:  MOVLW  23
05DC2:  MOVWF  x7E
05DC4:  MOVLW  01
05DC6:  MOVWF  x7F
05DC8:  CLRF   x80
05DCA:  MOVLB  0
05DCC:  CALL   0EE8
....................                         goto STARTRIEGO;} 
05DD0:  BRA    5A66
....................                   
....................                   
....................                  if(s > 165 &&  s < 185){ 
05DD2:  MOVF   04,W
05DD4:  SUBLW  A5
05DD6:  BTFSC  FD8.0
05DD8:  BRA    5EBC
05DDA:  MOVF   04,W
05DDC:  SUBLW  B8
05DDE:  BTFSS  FD8.0
05DE0:  BRA    5EBC
....................                   
....................                   STARTRIEGO2: 
....................                     glcd_rect(55,34,65,35,YES,OFF); 
05DE2:  MOVLW  37
05DE4:  MOVLB  2
05DE6:  MOVWF  x7B
05DE8:  MOVLW  22
05DEA:  MOVWF  x7C
05DEC:  MOVLW  41
05DEE:  MOVWF  x7D
05DF0:  MOVLW  23
05DF2:  MOVWF  x7E
05DF4:  MOVLW  01
05DF6:  MOVWF  x7F
05DF8:  CLRF   x80
05DFA:  MOVLB  0
05DFC:  CALL   0EE8
....................                     glcd_rect(9,41,118,57,NO,OFF); 
05E00:  MOVLW  09
05E02:  MOVLB  2
05E04:  MOVWF  x7B
05E06:  MOVLW  29
05E08:  MOVWF  x7C
05E0A:  MOVLW  76
05E0C:  MOVWF  x7D
05E0E:  MOVLW  39
05E10:  MOVWF  x7E
05E12:  CLRF   x7F
05E14:  CLRF   x80
05E16:  MOVLB  0
05E18:  CALL   0EE8
....................                     
....................                     delay_ms(200); 
05E1C:  MOVLW  C8
05E1E:  MOVLB  2
05E20:  MOVWF  x84
05E22:  MOVLB  0
05E24:  CALL   0D82
....................                     s = read_adc();     
05E28:  BSF    FC2.1
05E2A:  BTFSC  FC2.1
05E2C:  BRA    5E2A
05E2E:  MOVFF  FC4,04
....................                     delay_ms(50); 
05E32:  MOVLW  32
05E34:  MOVLB  2
05E36:  MOVWF  x84
05E38:  MOVLB  0
05E3A:  CALL   0D82
....................                     while(s>230){ 
05E3E:  MOVF   04,W
05E40:  SUBLW  E6
05E42:  BC    5E5C
....................                        s = read_adc();     
05E44:  BSF    FC2.1
05E46:  BTFSC  FC2.1
05E48:  BRA    5E46
05E4A:  MOVFF  FC4,04
....................                        delay_ms(50); 
05E4E:  MOVLW  32
05E50:  MOVLB  2
05E52:  MOVWF  x84
05E54:  MOVLB  0
05E56:  CALL   0D82
....................                     } 
05E5A:  BRA    5E3E
....................                     if(s > 195 && s < 225) 
05E5C:  MOVF   04,W
05E5E:  SUBLW  C3
05E60:  BC    5E6C
05E62:  MOVF   04,W
05E64:  SUBLW  E0
05E66:  BNC   5E6C
....................                         goto CONF_TEMPORIZADOR; 
05E68:  GOTO   5030
....................                          
....................                     if(s > 115 && s < 135){ 
05E6C:  MOVF   04,W
05E6E:  SUBLW  73
05E70:  BC    5EB8
05E72:  MOVF   04,W
05E74:  SUBLW  86
05E76:  BNC   5EB8
....................                      glcd_rect(55,34,65,35,YES,ON); 
05E78:  MOVLW  37
05E7A:  MOVLB  2
05E7C:  MOVWF  x7B
05E7E:  MOVLW  22
05E80:  MOVWF  x7C
05E82:  MOVLW  41
05E84:  MOVWF  x7D
05E86:  MOVLW  23
05E88:  MOVWF  x7E
05E8A:  MOVLW  01
05E8C:  MOVWF  x7F
05E8E:  MOVWF  x80
05E90:  MOVLB  0
05E92:  CALL   0EE8
....................                      glcd_rect(9,41,118,57,NO,ON); 
05E96:  MOVLW  09
05E98:  MOVLB  2
05E9A:  MOVWF  x7B
05E9C:  MOVLW  29
05E9E:  MOVWF  x7C
05EA0:  MOVLW  76
05EA2:  MOVWF  x7D
05EA4:  MOVLW  39
05EA6:  MOVWF  x7E
05EA8:  CLRF   x7F
05EAA:  MOVLW  01
05EAC:  MOVWF  x80
05EAE:  MOVLB  0
05EB0:  CALL   0EE8
....................                         goto STARTRIEGO1; 
05EB4:  BRA    5C32
....................                  }    
....................                    else goto STARTRIEGO2; 
05EB6:  BRA    5EBA
05EB8:  BRA    5DE2
....................                  } 
....................                  else 
05EBA:  BRA    5EBE
....................                      goto STARTRIEGO2; 
05EBC:  BRA    5DE2
....................              }   
....................                     
....................              else  
05EBE:  BRA    5EC2
....................                  goto STARTRIEGO; 
05EC0:  BRA    5A66
....................           
....................      CONF_NUMERO: 
....................       
....................        glcd_fillScreen(0); 
05EC2:  MOVLB  2
05EC4:  CLRF   x7C
05EC6:  MOVLB  0
05EC8:  CALL   0A62
....................        glcd_rect(0,0,127,63,NO,ON); 
05ECC:  MOVLB  2
05ECE:  CLRF   x7B
05ED0:  CLRF   x7C
05ED2:  MOVLW  7F
05ED4:  MOVWF  x7D
05ED6:  MOVLW  3F
05ED8:  MOVWF  x7E
05EDA:  CLRF   x7F
05EDC:  MOVLW  01
05EDE:  MOVWF  x80
05EE0:  MOVLB  0
05EE2:  CALL   0EE8
....................        glcd_rect(1,1,126,62,NO,ON); 
05EE6:  MOVLW  01
05EE8:  MOVLB  2
05EEA:  MOVWF  x7B
05EEC:  MOVWF  x7C
05EEE:  MOVLW  7E
05EF0:  MOVWF  x7D
05EF2:  MOVLW  3E
05EF4:  MOVWF  x7E
05EF6:  CLRF   x7F
05EF8:  MOVLW  01
05EFA:  MOVWF  x80
05EFC:  MOVLB  0
05EFE:  CALL   0EE8
....................        glcd_text57(22,5,NUM_CICLOS, 1, 1); 
05F02:  MOVLW  16
05F04:  MOVLB  2
05F06:  MOVWF  x7B
05F08:  MOVLW  05
05F0A:  MOVWF  x7C
05F0C:  MOVLW  02
05F0E:  MOVWF  x7E
05F10:  MOVLW  4F
05F12:  MOVWF  x7D
05F14:  MOVLW  01
05F16:  MOVWF  x7F
05F18:  MOVWF  x80
05F1A:  MOVLB  0
05F1C:  CALL   0FAA
....................        sprintf(Pgeneral5,"%02d",num); 
05F20:  MOVLB  2
05F22:  CLRF   x78
05F24:  MOVLW  92
05F26:  MOVWF  x77
05F28:  MOVFF  1B,27B
05F2C:  MOVLW  01
05F2E:  MOVWF  x7C
05F30:  MOVLB  0
05F32:  CALL   1402
....................        glcd_text57(30,18,Pgeneral5, 2, 1);   //   linea que selecciona LA HORA 
05F36:  MOVLW  1E
05F38:  MOVLB  2
05F3A:  MOVWF  x7B
05F3C:  MOVLW  12
05F3E:  MOVWF  x7C
05F40:  CLRF   x7E
05F42:  MOVLW  92
05F44:  MOVWF  x7D
05F46:  MOVLW  02
05F48:  MOVWF  x7F
05F4A:  MOVLW  01
05F4C:  MOVWF  x80
05F4E:  MOVLB  0
05F50:  CALL   0FAA
....................        glcd_text57(55,18,CICLOS, 2, 1); 
05F54:  MOVLW  37
05F56:  MOVLB  2
05F58:  MOVWF  x7B
05F5A:  MOVLW  12
05F5C:  MOVWF  x7C
05F5E:  MOVLW  02
05F60:  MOVWF  x7E
05F62:  MOVLW  60
05F64:  MOVWF  x7D
05F66:  MOVLW  02
05F68:  MOVWF  x7F
05F6A:  MOVLW  01
05F6C:  MOVWF  x80
05F6E:  MOVLB  0
05F70:  CALL   0FAA
....................         
....................        
....................        glcd_rect(8,40,119,58,YES,ON);         //      recuadro 
05F74:  MOVLW  08
05F76:  MOVLB  2
05F78:  MOVWF  x7B
05F7A:  MOVLW  28
05F7C:  MOVWF  x7C
05F7E:  MOVLW  77
05F80:  MOVWF  x7D
05F82:  MOVLW  3A
05F84:  MOVWF  x7E
05F86:  MOVLW  01
05F88:  MOVWF  x7F
05F8A:  MOVWF  x80
05F8C:  MOVLB  0
05F8E:  CALL   0EE8
....................        glcd_text57(34,46,ESTABLECER, 1, 0);   // 
05F92:  MOVLW  22
05F94:  MOVLB  2
05F96:  MOVWF  x7B
05F98:  MOVLW  2E
05F9A:  MOVWF  x7C
05F9C:  MOVLW  01
05F9E:  MOVWF  x7E
05FA0:  MOVLW  A4
05FA2:  MOVWF  x7D
05FA4:  MOVLW  01
05FA6:  MOVWF  x7F
05FA8:  CLRF   x80
05FAA:  MOVLB  0
05FAC:  CALL   0FAA
....................         
....................        numset = num; 
05FB0:  MOVFF  1B,1C
....................         
....................    STARTNUM: 
....................     
....................         glcd_rect(30,34,50,35,YES,ON);   
05FB4:  MOVLW  1E
05FB6:  MOVLB  2
05FB8:  MOVWF  x7B
05FBA:  MOVLW  22
05FBC:  MOVWF  x7C
05FBE:  MOVLW  32
05FC0:  MOVWF  x7D
05FC2:  MOVLW  23
05FC4:  MOVWF  x7E
05FC6:  MOVLW  01
05FC8:  MOVWF  x7F
05FCA:  MOVWF  x80
05FCC:  MOVLB  0
05FCE:  CALL   0EE8
....................         glcd_rect(55,34,65,35,YES,ON); 
05FD2:  MOVLW  37
05FD4:  MOVLB  2
05FD6:  MOVWF  x7B
05FD8:  MOVLW  22
05FDA:  MOVWF  x7C
05FDC:  MOVLW  41
05FDE:  MOVWF  x7D
05FE0:  MOVLW  23
05FE2:  MOVWF  x7E
05FE4:  MOVLW  01
05FE6:  MOVWF  x7F
05FE8:  MOVWF  x80
05FEA:  MOVLB  0
05FEC:  CALL   0EE8
....................        
....................         glcd_rect(52,34,73,35,YES,OFF);  
05FF0:  MOVLW  34
05FF2:  MOVLB  2
05FF4:  MOVWF  x7B
05FF6:  MOVLW  22
05FF8:  MOVWF  x7C
05FFA:  MOVLW  49
05FFC:  MOVWF  x7D
05FFE:  MOVLW  23
06000:  MOVWF  x7E
06002:  MOVLW  01
06004:  MOVWF  x7F
06006:  CLRF   x80
06008:  MOVLB  0
0600A:  CALL   0EE8
....................         glcd_rect(85,34,107,35,YES,OFF); 
0600E:  MOVLW  55
06010:  MOVLB  2
06012:  MOVWF  x7B
06014:  MOVLW  22
06016:  MOVWF  x7C
06018:  MOVLW  6B
0601A:  MOVWF  x7D
0601C:  MOVLW  23
0601E:  MOVWF  x7E
06020:  MOVLW  01
06022:  MOVWF  x7F
06024:  CLRF   x80
06026:  MOVLB  0
06028:  CALL   0EE8
....................       
....................         glcd_rect(9,41,118,57,NO,ON); 
0602C:  MOVLW  09
0602E:  MOVLB  2
06030:  MOVWF  x7B
06032:  MOVLW  29
06034:  MOVWF  x7C
06036:  MOVLW  76
06038:  MOVWF  x7D
0603A:  MOVLW  39
0603C:  MOVWF  x7E
0603E:  CLRF   x7F
06040:  MOVLW  01
06042:  MOVWF  x80
06044:  MOVLB  0
06046:  CALL   0EE8
....................              s = read_adc();     
0604A:  BSF    FC2.1
0604C:  BTFSC  FC2.1
0604E:  BRA    604C
06050:  MOVFF  FC4,04
....................              delay_ms(50); 
06054:  MOVLW  32
06056:  MOVLB  2
06058:  MOVWF  x84
0605A:  MOVLB  0
0605C:  CALL   0D82
....................     
....................     
....................              while(s>230){ 
06060:  MOVF   04,W
06062:  SUBLW  E6
06064:  BC    607E
....................                    s = read_adc();     
06066:  BSF    FC2.1
06068:  BTFSC  FC2.1
0606A:  BRA    6068
0606C:  MOVFF  FC4,04
....................                    delay_ms(50); 
06070:  MOVLW  32
06072:  MOVLB  2
06074:  MOVWF  x84
06076:  MOVLB  0
06078:  CALL   0D82
....................              } 
0607C:  BRA    6060
....................              if (s > 10 && s < 40){ // tecla arriba cuadrar hora 
0607E:  MOVF   04,W
06080:  SUBLW  0A
06082:  BC    60F8
06084:  MOVF   04,W
06086:  SUBLW  27
06088:  BNC   60F8
....................                   
....................                  if(numset > 99){ 
0608A:  MOVF   1C,W
0608C:  SUBLW  63
0608E:  BC    6094
....................                      numset = 99;} 
06090:  MOVLW  63
06092:  MOVWF  1C
....................                  numset ++; 
06094:  INCF   1C,F
....................                   
....................                  glcd_rect(30,18,50,32,YES,OFF);// linea 
06096:  MOVLW  1E
06098:  MOVLB  2
0609A:  MOVWF  x7B
0609C:  MOVLW  12
0609E:  MOVWF  x7C
060A0:  MOVLW  32
060A2:  MOVWF  x7D
060A4:  MOVLW  20
060A6:  MOVWF  x7E
060A8:  MOVLW  01
060AA:  MOVWF  x7F
060AC:  CLRF   x80
060AE:  MOVLB  0
060B0:  CALL   0EE8
....................                  sprintf(Pgeneral5,"%02d", numset); 
060B4:  MOVLB  2
060B6:  CLRF   x78
060B8:  MOVLW  92
060BA:  MOVWF  x77
060BC:  MOVFF  1C,27B
060C0:  MOVLW  01
060C2:  MOVWF  x7C
060C4:  MOVLB  0
060C6:  CALL   1402
....................                  glcd_text57(30,18,Pgeneral5, 2, 1); 
060CA:  MOVLW  1E
060CC:  MOVLB  2
060CE:  MOVWF  x7B
060D0:  MOVLW  12
060D2:  MOVWF  x7C
060D4:  CLRF   x7E
060D6:  MOVLW  92
060D8:  MOVWF  x7D
060DA:  MOVLW  02
060DC:  MOVWF  x7F
060DE:  MOVLW  01
060E0:  MOVWF  x80
060E2:  MOVLB  0
060E4:  CALL   0FAA
....................                  delay_ms(100); 
060E8:  MOVLW  64
060EA:  MOVLB  2
060EC:  MOVWF  x84
060EE:  MOVLB  0
060F0:  CALL   0D82
....................                  goto STARTNUM; 
060F4:  BRA    5FB4
....................              } 
....................                else if(s > 60 && s < 90){ 
060F6:  BRA    625C
060F8:  MOVF   04,W
060FA:  SUBLW  3C
060FC:  BC    6170
060FE:  MOVF   04,W
06100:  SUBLW  59
06102:  BNC   6170
....................                   
....................                  if(numset < 1 ) 
06104:  MOVF   1C,F
06106:  BNZ   610C
....................                      numset = 1; 
06108:  MOVLW  01
0610A:  MOVWF  1C
....................                  numset --; 
0610C:  DECF   1C,F
....................                  glcd_rect(30,18,50,32,YES,OFF); 
0610E:  MOVLW  1E
06110:  MOVLB  2
06112:  MOVWF  x7B
06114:  MOVLW  12
06116:  MOVWF  x7C
06118:  MOVLW  32
0611A:  MOVWF  x7D
0611C:  MOVLW  20
0611E:  MOVWF  x7E
06120:  MOVLW  01
06122:  MOVWF  x7F
06124:  CLRF   x80
06126:  MOVLB  0
06128:  CALL   0EE8
....................                  sprintf(Pgeneral5,"%02d", numset); 
0612C:  MOVLB  2
0612E:  CLRF   x78
06130:  MOVLW  92
06132:  MOVWF  x77
06134:  MOVFF  1C,27B
06138:  MOVLW  01
0613A:  MOVWF  x7C
0613C:  MOVLB  0
0613E:  CALL   1402
....................                  glcd_text57(30,18,Pgeneral5, 2, 1); 
06142:  MOVLW  1E
06144:  MOVLB  2
06146:  MOVWF  x7B
06148:  MOVLW  12
0614A:  MOVWF  x7C
0614C:  CLRF   x7E
0614E:  MOVLW  92
06150:  MOVWF  x7D
06152:  MOVLW  02
06154:  MOVWF  x7F
06156:  MOVLW  01
06158:  MOVWF  x80
0615A:  MOVLB  0
0615C:  CALL   0FAA
....................                  delay_ms(100); 
06160:  MOVLW  64
06162:  MOVLB  2
06164:  MOVWF  x84
06166:  MOVLB  0
06168:  CALL   0D82
....................                  goto STARTNUM; 
0616C:  BRA    5FB4
....................              } 
....................             
....................                   
....................              else    if(s > 165 &&  s < 185){ 
0616E:  BRA    625C
06170:  MOVF   04,W
06172:  SUBLW  A5
06174:  BTFSC  FD8.0
06176:  BRA    625A
06178:  MOVF   04,W
0617A:  SUBLW  B8
0617C:  BTFSS  FD8.0
0617E:  BRA    625A
....................                   
....................                   STARTNUM1: 
....................                     glcd_rect(30,34,50,35,YES,OFF);  
06180:  MOVLW  1E
06182:  MOVLB  2
06184:  MOVWF  x7B
06186:  MOVLW  22
06188:  MOVWF  x7C
0618A:  MOVLW  32
0618C:  MOVWF  x7D
0618E:  MOVLW  23
06190:  MOVWF  x7E
06192:  MOVLW  01
06194:  MOVWF  x7F
06196:  CLRF   x80
06198:  MOVLB  0
0619A:  CALL   0EE8
....................                      
....................                     glcd_rect(9,41,118,57,NO,OFF); 
0619E:  MOVLW  09
061A0:  MOVLB  2
061A2:  MOVWF  x7B
061A4:  MOVLW  29
061A6:  MOVWF  x7C
061A8:  MOVLW  76
061AA:  MOVWF  x7D
061AC:  MOVLW  39
061AE:  MOVWF  x7E
061B0:  CLRF   x7F
061B2:  CLRF   x80
061B4:  MOVLB  0
061B6:  CALL   0EE8
....................                     
....................                     delay_ms(200); 
061BA:  MOVLW  C8
061BC:  MOVLB  2
061BE:  MOVWF  x84
061C0:  MOVLB  0
061C2:  CALL   0D82
....................                     s = read_adc();     
061C6:  BSF    FC2.1
061C8:  BTFSC  FC2.1
061CA:  BRA    61C8
061CC:  MOVFF  FC4,04
....................                     delay_ms(50); 
061D0:  MOVLW  32
061D2:  MOVLB  2
061D4:  MOVWF  x84
061D6:  MOVLB  0
061D8:  CALL   0D82
....................                     while(s>230){ 
061DC:  MOVF   04,W
061DE:  SUBLW  E6
061E0:  BC    61FA
....................                        s = read_adc();     
061E2:  BSF    FC2.1
061E4:  BTFSC  FC2.1
061E6:  BRA    61E4
061E8:  MOVFF  FC4,04
....................                        delay_ms(50); 
061EC:  MOVLW  32
061EE:  MOVLB  2
061F0:  MOVWF  x84
061F2:  MOVLB  0
061F4:  CALL   0D82
....................                     } 
061F8:  BRA    61DC
....................                     if(s > 195 && s < 225) 
061FA:  MOVF   04,W
061FC:  SUBLW  C3
061FE:  BC    620A
06200:  MOVF   04,W
06202:  SUBLW  E0
06204:  BNC   620A
....................                         goto CONF_TEMPORIZADOR; 
06206:  GOTO   5030
....................                          
....................                     if(s > 115 && s < 135){ 
0620A:  MOVF   04,W
0620C:  SUBLW  73
0620E:  BC    6256
06210:  MOVF   04,W
06212:  SUBLW  86
06214:  BNC   6256
....................                      glcd_rect(55,34,65,35,YES,ON); 
06216:  MOVLW  37
06218:  MOVLB  2
0621A:  MOVWF  x7B
0621C:  MOVLW  22
0621E:  MOVWF  x7C
06220:  MOVLW  41
06222:  MOVWF  x7D
06224:  MOVLW  23
06226:  MOVWF  x7E
06228:  MOVLW  01
0622A:  MOVWF  x7F
0622C:  MOVWF  x80
0622E:  MOVLB  0
06230:  CALL   0EE8
....................                      glcd_rect(9,41,118,57,NO,ON); 
06234:  MOVLW  09
06236:  MOVLB  2
06238:  MOVWF  x7B
0623A:  MOVLW  29
0623C:  MOVWF  x7C
0623E:  MOVLW  76
06240:  MOVWF  x7D
06242:  MOVLW  39
06244:  MOVWF  x7E
06246:  CLRF   x7F
06248:  MOVLW  01
0624A:  MOVWF  x80
0624C:  MOVLB  0
0624E:  CALL   0EE8
....................                         goto STARTNUM; 
06252:  BRA    5FB4
....................                  }    
....................                    else goto STARTNUM1; 
06254:  BRA    6258
06256:  BRA    6180
....................                  } 
....................                  else 
06258:  BRA    625C
....................                      goto STARTNUM; 
0625A:  BRA    5FB4
....................             
....................                     
....................  
....................      CONF_DIAS: 
....................       
....................       
....................        glcd_fillScreen(0); 
0625C:  MOVLB  2
0625E:  CLRF   x7C
06260:  MOVLB  0
06262:  CALL   0A62
....................        glcd_rect(0,0,127,63,NO,ON); 
06266:  MOVLB  2
06268:  CLRF   x7B
0626A:  CLRF   x7C
0626C:  MOVLW  7F
0626E:  MOVWF  x7D
06270:  MOVLW  3F
06272:  MOVWF  x7E
06274:  CLRF   x7F
06276:  MOVLW  01
06278:  MOVWF  x80
0627A:  MOVLB  0
0627C:  CALL   0EE8
....................        glcd_rect(1,1,126,62,NO,ON); 
06280:  MOVLW  01
06282:  MOVLB  2
06284:  MOVWF  x7B
06286:  MOVWF  x7C
06288:  MOVLW  7E
0628A:  MOVWF  x7D
0628C:  MOVLW  3E
0628E:  MOVWF  x7E
06290:  CLRF   x7F
06292:  MOVLW  01
06294:  MOVWF  x80
06296:  MOVLB  0
06298:  CALL   0EE8
....................        glcd_text57(10,5,DIAS_TRABAJO, 1, 1); 
0629C:  MOVLW  0A
0629E:  MOVLB  2
062A0:  MOVWF  x7B
062A2:  MOVLW  05
062A4:  MOVWF  x7C
062A6:  MOVLW  02
062A8:  MOVWF  x7E
062AA:  MOVLW  67
062AC:  MOVWF  x7D
062AE:  MOVLW  01
062B0:  MOVWF  x7F
062B2:  MOVWF  x80
062B4:  MOVLB  0
062B6:  CALL   0FAA
....................  
....................        glcd_text57(10,18,LUNES, 2, 1);   //    
062BA:  MOVLW  0A
062BC:  MOVLB  2
062BE:  MOVWF  x7B
062C0:  MOVLW  12
062C2:  MOVWF  x7C
062C4:  MOVLW  01
062C6:  MOVWF  x7E
062C8:  MOVLW  17
062CA:  MOVWF  x7D
062CC:  MOVLW  02
062CE:  MOVWF  x7F
062D0:  MOVLW  01
062D2:  MOVWF  x80
062D4:  MOVLB  0
062D6:  CALL   0FAA
....................   
....................         
....................        
....................        glcd_rect(8,40,70,58,YES,ON);         //      recuadro 
062DA:  MOVLW  08
062DC:  MOVLB  2
062DE:  MOVWF  x7B
062E0:  MOVLW  28
062E2:  MOVWF  x7C
062E4:  MOVLW  46
062E6:  MOVWF  x7D
062E8:  MOVLW  3A
062EA:  MOVWF  x7E
062EC:  MOVLW  01
062EE:  MOVWF  x7F
062F0:  MOVWF  x80
062F2:  MOVLB  0
062F4:  CALL   0EE8
....................        glcd_text57(10,46,ESTABLECER, 1, 0);   // 
062F8:  MOVLW  0A
062FA:  MOVLB  2
062FC:  MOVWF  x7B
062FE:  MOVLW  2E
06300:  MOVWF  x7C
06302:  MOVLW  01
06304:  MOVWF  x7E
06306:  MOVLW  A4
06308:  MOVWF  x7D
0630A:  MOVLW  01
0630C:  MOVWF  x7F
0630E:  CLRF   x80
06310:  MOVLB  0
06312:  CALL   0FAA
....................         
....................        diasset = dias; 
06316:  MOVFF  1D,1E
....................         
....................    STARTDIAS: 
....................     
....................         glcd_rect(8,34,80,35,YES,ON);   
0631A:  MOVLW  08
0631C:  MOVLB  2
0631E:  MOVWF  x7B
06320:  MOVLW  22
06322:  MOVWF  x7C
06324:  MOVLW  50
06326:  MOVWF  x7D
06328:  MOVLW  23
0632A:  MOVWF  x7E
0632C:  MOVLW  01
0632E:  MOVWF  x7F
06330:  MOVWF  x80
06332:  MOVLB  0
06334:  CALL   0EE8
....................          
....................              s = read_adc();     
06338:  BSF    FC2.1
0633A:  BTFSC  FC2.1
0633C:  BRA    633A
0633E:  MOVFF  FC4,04
....................              delay_ms(50); 
06342:  MOVLW  32
06344:  MOVLB  2
06346:  MOVWF  x84
06348:  MOVLB  0
0634A:  CALL   0D82
....................     
....................     
....................              while(s>230){ 
0634E:  MOVF   04,W
06350:  SUBLW  E6
06352:  BC    636C
....................                    s = read_adc();     
06354:  BSF    FC2.1
06356:  BTFSC  FC2.1
06358:  BRA    6356
0635A:  MOVFF  FC4,04
....................                    delay_ms(50); 
0635E:  MOVLW  32
06360:  MOVLB  2
06362:  MOVWF  x84
06364:  MOVLB  0
06366:  CALL   0D82
....................              } 
0636A:  BRA    634E
....................            if (s > 10 && s < 40){ // tecla arriba cuadrar hora 
0636C:  MOVF   04,W
0636E:  SUBLW  0A
06370:  BTFSC  FD8.0
06372:  BRA    64B2
06374:  MOVF   04,W
06376:  SUBLW  27
06378:  BTFSS  FD8.0
0637A:  BRA    64B2
....................                   
....................                  if(diasset > 7){ 
0637C:  MOVF   1E,W
0637E:  SUBLW  07
06380:  BC    6386
....................                      diasset = 7;} 
06382:  MOVLW  07
06384:  MOVWF  1E
....................                  diasset ++; 
06386:  INCF   1E,F
....................                   
....................                  glcd_rect(8,18,80,32,YES,OFF);//  
06388:  MOVLW  08
0638A:  MOVLB  2
0638C:  MOVWF  x7B
0638E:  MOVLW  12
06390:  MOVWF  x7C
06392:  MOVLW  50
06394:  MOVWF  x7D
06396:  MOVLW  20
06398:  MOVWF  x7E
0639A:  MOVLW  01
0639C:  MOVWF  x7F
0639E:  CLRF   x80
063A0:  MOVLB  0
063A2:  CALL   0EE8
....................  
....................                   
....................                       if(diasset == 7) 
063A6:  MOVF   1E,W
063A8:  SUBLW  07
063AA:  BNZ   63CC
....................                         glcd_text57(10,18,DOMING, 2, 1); 
063AC:  MOVLW  0A
063AE:  MOVLB  2
063B0:  MOVWF  x7B
063B2:  MOVLW  12
063B4:  MOVWF  x7C
063B6:  MOVLW  01
063B8:  MOVWF  x7E
063BA:  MOVLW  67
063BC:  MOVWF  x7D
063BE:  MOVLW  02
063C0:  MOVWF  x7F
063C2:  MOVLW  01
063C4:  MOVWF  x80
063C6:  MOVLB  0
063C8:  CALL   0FAA
....................                       if(diasset == 1) 
063CC:  DECFSZ 1E,W
063CE:  BRA    63F0
....................                         glcd_text57(10,18,LUNES, 2, 1); 
063D0:  MOVLW  0A
063D2:  MOVLB  2
063D4:  MOVWF  x7B
063D6:  MOVLW  12
063D8:  MOVWF  x7C
063DA:  MOVLW  01
063DC:  MOVWF  x7E
063DE:  MOVLW  17
063E0:  MOVWF  x7D
063E2:  MOVLW  02
063E4:  MOVWF  x7F
063E6:  MOVLW  01
063E8:  MOVWF  x80
063EA:  MOVLB  0
063EC:  CALL   0FAA
....................                       if(diasset == 2) 
063F0:  MOVF   1E,W
063F2:  SUBLW  02
063F4:  BNZ   6416
....................                         glcd_text57(10,18,MARTES, 2, 1); 
063F6:  MOVLW  0A
063F8:  MOVLB  2
063FA:  MOVWF  x7B
063FC:  MOVLW  12
063FE:  MOVWF  x7C
06400:  MOVLW  01
06402:  MOVWF  x7E
06404:  MOVLW  32
06406:  MOVWF  x7D
06408:  MOVLW  02
0640A:  MOVWF  x7F
0640C:  MOVLW  01
0640E:  MOVWF  x80
06410:  MOVLB  0
06412:  CALL   0FAA
....................                       if(diasset == 3) 
06416:  MOVF   1E,W
06418:  SUBLW  03
0641A:  BNZ   643C
....................                         glcd_text57(10,18,MIERCO,2, 1); 
0641C:  MOVLW  0A
0641E:  MOVLB  2
06420:  MOVWF  x7B
06422:  MOVLW  12
06424:  MOVWF  x7C
06426:  MOVLW  01
06428:  MOVWF  x7E
0642A:  MOVLW  59
0642C:  MOVWF  x7D
0642E:  MOVLW  02
06430:  MOVWF  x7F
06432:  MOVLW  01
06434:  MOVWF  x80
06436:  MOVLB  0
06438:  CALL   0FAA
....................                       if(diasset == 4) 
0643C:  MOVF   1E,W
0643E:  SUBLW  04
06440:  BNZ   6462
....................                         glcd_text57(10,18,JUEVES, 2, 1); 
06442:  MOVLW  0A
06444:  MOVLB  2
06446:  MOVWF  x7B
06448:  MOVLW  12
0644A:  MOVWF  x7C
0644C:  MOVLW  01
0644E:  MOVWF  x7E
06450:  MOVLW  43
06452:  MOVWF  x7D
06454:  MOVLW  02
06456:  MOVWF  x7F
06458:  MOVLW  01
0645A:  MOVWF  x80
0645C:  MOVLB  0
0645E:  CALL   0FAA
....................                       if(diasset == 5) 
06462:  MOVF   1E,W
06464:  SUBLW  05
06466:  BNZ   6488
....................                         glcd_text57(10,18,VIERNE, 2, 1); 
06468:  MOVLW  0A
0646A:  MOVLB  2
0646C:  MOVWF  x7B
0646E:  MOVLW  12
06470:  MOVWF  x7C
06472:  MOVLW  01
06474:  MOVWF  x7E
06476:  MOVLW  60
06478:  MOVWF  x7D
0647A:  MOVLW  02
0647C:  MOVWF  x7F
0647E:  MOVLW  01
06480:  MOVWF  x80
06482:  MOVLB  0
06484:  CALL   0FAA
....................                       if(diasset == 6) 
06488:  MOVF   1E,W
0648A:  SUBLW  06
0648C:  BNZ   64AE
....................                         glcd_text57(10,18,SABADO, 2, 1); 
0648E:  MOVLW  0A
06490:  MOVLB  2
06492:  MOVWF  x7B
06494:  MOVLW  12
06496:  MOVWF  x7C
06498:  MOVLW  01
0649A:  MOVWF  x7E
0649C:  MOVLW  52
0649E:  MOVWF  x7D
064A0:  MOVLW  02
064A2:  MOVWF  x7F
064A4:  MOVLW  01
064A6:  MOVWF  x80
064A8:  MOVLB  0
064AA:  CALL   0FAA
....................                   
....................                  goto STARTDIAS; 
064AE:  BRA    631A
....................              } 
....................                else if(s > 60 && s < 90){ 
064B0:  BRA    65F4
064B2:  MOVF   04,W
064B4:  SUBLW  3C
064B6:  BTFSC  FD8.0
064B8:  BRA    65F4
064BA:  MOVF   04,W
064BC:  SUBLW  59
064BE:  BTFSS  FD8.0
064C0:  BRA    65F4
....................                   
....................                  if(diasset < 1 ) 
064C2:  MOVF   1E,F
064C4:  BNZ   64CA
....................                      diasset = 1; 
064C6:  MOVLW  01
064C8:  MOVWF  1E
....................                  diasset --; 
064CA:  DECF   1E,F
....................                  glcd_rect(8,18,80,32,YES,OFF); 
064CC:  MOVLW  08
064CE:  MOVLB  2
064D0:  MOVWF  x7B
064D2:  MOVLW  12
064D4:  MOVWF  x7C
064D6:  MOVLW  50
064D8:  MOVWF  x7D
064DA:  MOVLW  20
064DC:  MOVWF  x7E
064DE:  MOVLW  01
064E0:  MOVWF  x7F
064E2:  CLRF   x80
064E4:  MOVLB  0
064E6:  CALL   0EE8
....................  
....................                   
....................                       if(diasset == 7) 
064EA:  MOVF   1E,W
064EC:  SUBLW  07
064EE:  BNZ   6510
....................                         glcd_text57(10,18,DOMING, 2, 1); 
064F0:  MOVLW  0A
064F2:  MOVLB  2
064F4:  MOVWF  x7B
064F6:  MOVLW  12
064F8:  MOVWF  x7C
064FA:  MOVLW  01
064FC:  MOVWF  x7E
064FE:  MOVLW  67
06500:  MOVWF  x7D
06502:  MOVLW  02
06504:  MOVWF  x7F
06506:  MOVLW  01
06508:  MOVWF  x80
0650A:  MOVLB  0
0650C:  CALL   0FAA
....................                       if(diasset == 1) 
06510:  DECFSZ 1E,W
06512:  BRA    6534
....................                         glcd_text57(10,18,LUNES, 2, 1); 
06514:  MOVLW  0A
06516:  MOVLB  2
06518:  MOVWF  x7B
0651A:  MOVLW  12
0651C:  MOVWF  x7C
0651E:  MOVLW  01
06520:  MOVWF  x7E
06522:  MOVLW  17
06524:  MOVWF  x7D
06526:  MOVLW  02
06528:  MOVWF  x7F
0652A:  MOVLW  01
0652C:  MOVWF  x80
0652E:  MOVLB  0
06530:  CALL   0FAA
....................                       if(diasset == 2) 
06534:  MOVF   1E,W
06536:  SUBLW  02
06538:  BNZ   655A
....................                         glcd_text57(10,18,MARTES, 2, 1); 
0653A:  MOVLW  0A
0653C:  MOVLB  2
0653E:  MOVWF  x7B
06540:  MOVLW  12
06542:  MOVWF  x7C
06544:  MOVLW  01
06546:  MOVWF  x7E
06548:  MOVLW  32
0654A:  MOVWF  x7D
0654C:  MOVLW  02
0654E:  MOVWF  x7F
06550:  MOVLW  01
06552:  MOVWF  x80
06554:  MOVLB  0
06556:  CALL   0FAA
....................                       if(diasset == 3) 
0655A:  MOVF   1E,W
0655C:  SUBLW  03
0655E:  BNZ   6580
....................                         glcd_text57(10,18,MIERCO,2, 1); 
06560:  MOVLW  0A
06562:  MOVLB  2
06564:  MOVWF  x7B
06566:  MOVLW  12
06568:  MOVWF  x7C
0656A:  MOVLW  01
0656C:  MOVWF  x7E
0656E:  MOVLW  59
06570:  MOVWF  x7D
06572:  MOVLW  02
06574:  MOVWF  x7F
06576:  MOVLW  01
06578:  MOVWF  x80
0657A:  MOVLB  0
0657C:  CALL   0FAA
....................                       if(diasset == 4) 
06580:  MOVF   1E,W
06582:  SUBLW  04
06584:  BNZ   65A6
....................                         glcd_text57(10,18,JUEVES, 2, 1); 
06586:  MOVLW  0A
06588:  MOVLB  2
0658A:  MOVWF  x7B
0658C:  MOVLW  12
0658E:  MOVWF  x7C
06590:  MOVLW  01
06592:  MOVWF  x7E
06594:  MOVLW  43
06596:  MOVWF  x7D
06598:  MOVLW  02
0659A:  MOVWF  x7F
0659C:  MOVLW  01
0659E:  MOVWF  x80
065A0:  MOVLB  0
065A2:  CALL   0FAA
....................                       if(diasset == 5) 
065A6:  MOVF   1E,W
065A8:  SUBLW  05
065AA:  BNZ   65CC
....................                         glcd_text57(10,18,VIERNE, 2, 1); 
065AC:  MOVLW  0A
065AE:  MOVLB  2
065B0:  MOVWF  x7B
065B2:  MOVLW  12
065B4:  MOVWF  x7C
065B6:  MOVLW  01
065B8:  MOVWF  x7E
065BA:  MOVLW  60
065BC:  MOVWF  x7D
065BE:  MOVLW  02
065C0:  MOVWF  x7F
065C2:  MOVLW  01
065C4:  MOVWF  x80
065C6:  MOVLB  0
065C8:  CALL   0FAA
....................                       if(diasset == 6) 
065CC:  MOVF   1E,W
065CE:  SUBLW  06
065D0:  BNZ   65F2
....................                         glcd_text57(10,18,SABADO, 2, 1); 
065D2:  MOVLW  0A
065D4:  MOVLB  2
065D6:  MOVWF  x7B
065D8:  MOVLW  12
065DA:  MOVWF  x7C
065DC:  MOVLW  01
065DE:  MOVWF  x7E
065E0:  MOVLW  52
065E2:  MOVWF  x7D
065E4:  MOVLW  02
065E6:  MOVWF  x7F
065E8:  MOVLW  01
065EA:  MOVWF  x80
065EC:  MOVLB  0
065EE:  CALL   0FAA
....................                  goto STARTDIAS; 
065F2:  BRA    631A
....................              } 
....................              if(s > 195 && s < 225){ 
065F4:  MOVF   04,W
065F6:  SUBLW  C3
065F8:  BTFSC  FD8.0
065FA:  BRA    6702
065FC:  MOVF   04,W
065FE:  SUBLW  E0
06600:  BTFSS  FD8.0
06602:  BRA    6702
....................                    
....................                       if(diasset == 7) 
06604:  MOVF   1E,W
06606:  SUBLW  07
06608:  BNZ   6628
....................                         glcd_text57(110,40,D, 1, 1); 
0660A:  MOVLW  6E
0660C:  MOVLB  2
0660E:  MOVWF  x7B
06610:  MOVLW  28
06612:  MOVWF  x7C
06614:  MOVLW  01
06616:  MOVWF  x7E
06618:  MOVLW  2F
0661A:  MOVWF  x7D
0661C:  MOVLW  01
0661E:  MOVWF  x7F
06620:  MOVWF  x80
06622:  MOVLB  0
06624:  CALL   0FAA
....................                       if(diasset == 1) 
06628:  DECFSZ 1E,W
0662A:  BRA    664A
....................                         glcd_text57(90,15,LU, 1, 1);   
0662C:  MOVLW  5A
0662E:  MOVLB  2
06630:  MOVWF  x7B
06632:  MOVLW  0F
06634:  MOVWF  x7C
06636:  MOVLW  01
06638:  MOVWF  x7E
0663A:  MOVLW  1D
0663C:  MOVWF  x7D
0663E:  MOVLW  01
06640:  MOVWF  x7F
06642:  MOVWF  x80
06644:  MOVLB  0
06646:  CALL   0FAA
....................                       if(diasset == 2) 
0664A:  MOVF   1E,W
0664C:  SUBLW  02
0664E:  BNZ   666E
....................                         glcd_text57(90,23,MA, 1, 1); 
06650:  MOVLW  5A
06652:  MOVLB  2
06654:  MOVWF  x7B
06656:  MOVLW  17
06658:  MOVWF  x7C
0665A:  MOVLW  01
0665C:  MOVWF  x7E
0665E:  MOVLW  20
06660:  MOVWF  x7D
06662:  MOVLW  01
06664:  MOVWF  x7F
06666:  MOVWF  x80
06668:  MOVLB  0
0666A:  CALL   0FAA
....................                       if(diasset == 3) 
0666E:  MOVF   1E,W
06670:  SUBLW  03
06672:  BNZ   6692
....................                         glcd_text57(90,31,MI,1, 1); 
06674:  MOVLW  5A
06676:  MOVLB  2
06678:  MOVWF  x7B
0667A:  MOVLW  1F
0667C:  MOVWF  x7C
0667E:  MOVLW  01
06680:  MOVWF  x7E
06682:  MOVLW  23
06684:  MOVWF  x7D
06686:  MOVLW  01
06688:  MOVWF  x7F
0668A:  MOVWF  x80
0668C:  MOVLB  0
0668E:  CALL   0FAA
....................                       if(diasset == 4) 
06692:  MOVF   1E,W
06694:  SUBLW  04
06696:  BNZ   66B6
....................                         glcd_text57(110,15,JU, 1, 1); 
06698:  MOVLW  6E
0669A:  MOVLB  2
0669C:  MOVWF  x7B
0669E:  MOVLW  0F
066A0:  MOVWF  x7C
066A2:  MOVLW  01
066A4:  MOVWF  x7E
066A6:  MOVLW  26
066A8:  MOVWF  x7D
066AA:  MOVLW  01
066AC:  MOVWF  x7F
066AE:  MOVWF  x80
066B0:  MOVLB  0
066B2:  CALL   0FAA
....................                       if(diasset == 5) 
066B6:  MOVF   1E,W
066B8:  SUBLW  05
066BA:  BNZ   66DA
....................                         glcd_text57(110,23,VI, 1, 1); 
066BC:  MOVLW  6E
066BE:  MOVLB  2
066C0:  MOVWF  x7B
066C2:  MOVLW  17
066C4:  MOVWF  x7C
066C6:  MOVLW  01
066C8:  MOVWF  x7E
066CA:  MOVLW  29
066CC:  MOVWF  x7D
066CE:  MOVLW  01
066D0:  MOVWF  x7F
066D2:  MOVWF  x80
066D4:  MOVLB  0
066D6:  CALL   0FAA
....................                       if(diasset == 6) 
066DA:  MOVF   1E,W
066DC:  SUBLW  06
066DE:  BNZ   66FE
....................                         glcd_text57(110,32,SA, 1, 1); 
066E0:  MOVLW  6E
066E2:  MOVLB  2
066E4:  MOVWF  x7B
066E6:  MOVLW  20
066E8:  MOVWF  x7C
066EA:  MOVLW  01
066EC:  MOVWF  x7E
066EE:  MOVLW  2C
066F0:  MOVWF  x7D
066F2:  MOVLW  01
066F4:  MOVWF  x7F
066F6:  MOVWF  x80
066F8:  MOVLB  0
066FA:  CALL   0FAA
....................                  goto STARTDIAS; 
066FE:  BRA    631A
....................                   
....................   
....................              } 
....................     
....................              else    if(s > 165 &&  s < 185){ 
06700:  BRA    67EE
06702:  MOVF   04,W
06704:  SUBLW  A5
06706:  BTFSC  FD8.0
06708:  BRA    67EC
0670A:  MOVF   04,W
0670C:  SUBLW  B8
0670E:  BTFSS  FD8.0
06710:  BRA    67EC
....................                   
....................                   STARTDIAS1: 
....................                    
....................                     glcd_rect(8,34,80,35,YES,OFF);   
06712:  MOVLW  08
06714:  MOVLB  2
06716:  MOVWF  x7B
06718:  MOVLW  22
0671A:  MOVWF  x7C
0671C:  MOVLW  50
0671E:  MOVWF  x7D
06720:  MOVLW  23
06722:  MOVWF  x7E
06724:  MOVLW  01
06726:  MOVWF  x7F
06728:  CLRF   x80
0672A:  MOVLB  0
0672C:  CALL   0EE8
....................                      
....................                     glcd_rect(9,41,118,57,NO,OFF); 
06730:  MOVLW  09
06732:  MOVLB  2
06734:  MOVWF  x7B
06736:  MOVLW  29
06738:  MOVWF  x7C
0673A:  MOVLW  76
0673C:  MOVWF  x7D
0673E:  MOVLW  39
06740:  MOVWF  x7E
06742:  CLRF   x7F
06744:  CLRF   x80
06746:  MOVLB  0
06748:  CALL   0EE8
....................                     
....................                     delay_ms(200); 
0674C:  MOVLW  C8
0674E:  MOVLB  2
06750:  MOVWF  x84
06752:  MOVLB  0
06754:  CALL   0D82
....................                     s = read_adc();     
06758:  BSF    FC2.1
0675A:  BTFSC  FC2.1
0675C:  BRA    675A
0675E:  MOVFF  FC4,04
....................                     delay_ms(50); 
06762:  MOVLW  32
06764:  MOVLB  2
06766:  MOVWF  x84
06768:  MOVLB  0
0676A:  CALL   0D82
....................                     while(s>230){ 
0676E:  MOVF   04,W
06770:  SUBLW  E6
06772:  BC    678C
....................                        s = read_adc();     
06774:  BSF    FC2.1
06776:  BTFSC  FC2.1
06778:  BRA    6776
0677A:  MOVFF  FC4,04
....................                        delay_ms(50); 
0677E:  MOVLW  32
06780:  MOVLB  2
06782:  MOVWF  x84
06784:  MOVLB  0
06786:  CALL   0D82
....................                     } 
0678A:  BRA    676E
....................                     if(s > 195 && s < 225) 
0678C:  MOVF   04,W
0678E:  SUBLW  C3
06790:  BC    679C
06792:  MOVF   04,W
06794:  SUBLW  E0
06796:  BNC   679C
....................                         goto CONF_TEMPORIZADOR; 
06798:  GOTO   5030
....................                          
....................                     if(s > 115 && s < 135){ 
0679C:  MOVF   04,W
0679E:  SUBLW  73
067A0:  BC    67E8
067A2:  MOVF   04,W
067A4:  SUBLW  86
067A6:  BNC   67E8
....................                       
....................                       
....................                      glcd_rect(8,34,80,35,YES,ON);  
067A8:  MOVLW  08
067AA:  MOVLB  2
067AC:  MOVWF  x7B
067AE:  MOVLW  22
067B0:  MOVWF  x7C
067B2:  MOVLW  50
067B4:  MOVWF  x7D
067B6:  MOVLW  23
067B8:  MOVWF  x7E
067BA:  MOVLW  01
067BC:  MOVWF  x7F
067BE:  MOVWF  x80
067C0:  MOVLB  0
067C2:  CALL   0EE8
....................                      glcd_rect(9,41,118,57,NO,ON); 
067C6:  MOVLW  09
067C8:  MOVLB  2
067CA:  MOVWF  x7B
067CC:  MOVLW  29
067CE:  MOVWF  x7C
067D0:  MOVLW  76
067D2:  MOVWF  x7D
067D4:  MOVLW  39
067D6:  MOVWF  x7E
067D8:  CLRF   x7F
067DA:  MOVLW  01
067DC:  MOVWF  x80
067DE:  MOVLB  0
067E0:  CALL   0EE8
....................                         goto STARTDIAS; 
067E4:  BRA    631A
....................                  }    
....................                    else goto STARTDIAS; 
067E6:  BRA    67EA
067E8:  BRA    631A
....................                  } 
....................                  else 
067EA:  BRA    67EE
....................                      goto STARTDIAS; 
067EC:  BRA    631A
....................         SISTEMA: 
....................          
....................           
....................             
....................               
....................             glcd_fillScreen(0); 
067EE:  MOVLB  2
067F0:  CLRF   x7C
067F2:  MOVLB  0
067F4:  CALL   0A62
....................             glcd_rect(0,0,127,63,NO,ON); 
067F8:  MOVLB  2
067FA:  CLRF   x7B
067FC:  CLRF   x7C
067FE:  MOVLW  7F
06800:  MOVWF  x7D
06802:  MOVLW  3F
06804:  MOVWF  x7E
06806:  CLRF   x7F
06808:  MOVLW  01
0680A:  MOVWF  x80
0680C:  MOVLB  0
0680E:  CALL   0EE8
....................             glcd_rect(1,1,126,62,NO,ON); 
06812:  MOVLW  01
06814:  MOVLB  2
06816:  MOVWF  x7B
06818:  MOVWF  x7C
0681A:  MOVLW  7E
0681C:  MOVWF  x7D
0681E:  MOVLW  3E
06820:  MOVWF  x7E
06822:  CLRF   x7F
06824:  MOVLW  01
06826:  MOVWF  x80
06828:  MOVLB  0
0682A:  CALL   0EE8
....................              
....................   
....................              
....................             temp = ds1820_read();  //funcion 
0682E:  CALL   18FE
06832:  MOVFF  03,2A
06836:  MOVFF  02,29
0683A:  MOVFF  01,28
0683E:  MOVFF  00,27
....................             sprintf(Pgeneral6,"%.1f C",temp); 
06842:  MOVLB  2
06844:  CLRF   x78
06846:  MOVLW  42
06848:  MOVWF  x77
0684A:  MOVLW  89
0684C:  MOVWF  FE9
0684E:  MOVFF  2A,27E
06852:  MOVFF  29,27D
06856:  MOVFF  28,27C
0685A:  MOVFF  27,27B
0685E:  MOVLW  01
06860:  MOVWF  x7F
06862:  MOVLB  0
06864:  CALL   1B7A
06868:  MOVLW  20
0686A:  MOVLB  2
0686C:  MOVWF  x88
0686E:  MOVLB  0
06870:  CALL   13E2
06874:  MOVLW  B0
06876:  MOVLB  2
06878:  MOVWF  x88
0687A:  MOVLB  0
0687C:  CALL   13E2
06880:  MOVLW  43
06882:  MOVLB  2
06884:  MOVWF  x88
06886:  MOVLB  0
06888:  CALL   13E2
....................             glcd_text57(80,18,Pgeneral6, 1, 1); 
0688C:  MOVLW  50
0688E:  MOVLB  2
06890:  MOVWF  x7B
06892:  MOVLW  12
06894:  MOVWF  x7C
06896:  CLRF   x7E
06898:  MOVLW  42
0689A:  MOVWF  x7D
0689C:  MOVLW  01
0689E:  MOVWF  x7F
068A0:  MOVWF  x80
068A2:  MOVLB  0
068A4:  CALL   0FAA
....................              
....................         INICIO_SISTEMA: 
....................             glcd_fillScreen(0); 
068A8:  MOVLB  2
068AA:  CLRF   x7C
068AC:  MOVLB  0
068AE:  CALL   0A62
....................             delay_ms(1000); 
068B2:  MOVLW  04
068B4:  MOVLB  2
068B6:  MOVWF  x7B
068B8:  MOVLW  FA
068BA:  MOVWF  x84
068BC:  MOVLB  0
068BE:  CALL   0D82
068C2:  MOVLB  2
068C4:  DECFSZ x7B,F
068C6:  BRA    68B8
....................             leerRTC(); 
068C8:  MOVLB  0
068CA:  CALL   1238
....................  
....................             sprintf(Pgeneral5,"\%02d:\%02d:\%02d", hr,min,sec); 
068CE:  MOVLB  2
068D0:  CLRF   x78
068D2:  MOVLW  92
068D4:  MOVWF  x77
068D6:  MOVFF  0A,27B
068DA:  MOVLW  01
068DC:  MOVWF  x7C
068DE:  MOVLB  0
068E0:  CALL   1402
068E4:  MOVLW  3A
068E6:  MOVLB  2
068E8:  MOVWF  x88
068EA:  MOVLB  0
068EC:  CALL   13E2
068F0:  MOVFF  0B,27B
068F4:  MOVLW  01
068F6:  MOVLB  2
068F8:  MOVWF  x7C
068FA:  MOVLB  0
068FC:  CALL   1402
06900:  MOVLW  3A
06902:  MOVLB  2
06904:  MOVWF  x88
06906:  MOVLB  0
06908:  CALL   13E2
0690C:  MOVFF  0C,27B
06910:  MOVLW  01
06912:  MOVLB  2
06914:  MOVWF  x7C
06916:  MOVLB  0
06918:  CALL   1402
....................             glcd_text57(70,33,Pgeneral5, 1, 1); 
0691C:  MOVLW  46
0691E:  MOVLB  2
06920:  MOVWF  x7B
06922:  MOVLW  21
06924:  MOVWF  x7C
06926:  CLRF   x7E
06928:  MOVLW  92
0692A:  MOVWF  x7D
0692C:  MOVLW  01
0692E:  MOVWF  x7F
06930:  MOVWF  x80
06932:  MOVLB  0
06934:  CALL   0FAA
....................      
....................           // glcd_rect(69,33,120,50,NO,ON); 
....................  
....................             //sprintf(Pgeneral,"\%02d/\%02d/\%02d", dia,mes,yr); 
....................             //glcd_text57(76,53,Pgeneral, 1, 1); 
....................             //tim = 1 horas tim= 0 minutos 
....................            //if( NIVEL== 1){ 
....................                 
....................              
....................               // if(tim ==1){ 
....................                 
....................                 
....................                 
....................               // } 
....................              
....................              
....................              
....................             //} 
....................              
....................              
.................... goto INICIO_SISTEMA; 
06938:  BRA    68A8
....................      CONF_GOT: 
....................          glcd_fillScreen(0); 
0693A:  MOVLB  2
0693C:  CLRF   x7C
0693E:  MOVLB  0
06940:  CALL   0A62
....................          glcd_rect(0,0,127,63,NO,ON); 
06944:  MOVLB  2
06946:  CLRF   x7B
06948:  CLRF   x7C
0694A:  MOVLW  7F
0694C:  MOVWF  x7D
0694E:  MOVLW  3F
06950:  MOVWF  x7E
06952:  CLRF   x7F
06954:  MOVLW  01
06956:  MOVWF  x80
06958:  MOVLB  0
0695A:  CALL   0EE8
....................          glcd_rect(1,1,126,62,NO,ON); 
0695E:  MOVLW  01
06960:  MOVLB  2
06962:  MOVWF  x7B
06964:  MOVWF  x7C
06966:  MOVLW  7E
06968:  MOVWF  x7D
0696A:  MOVLW  3E
0696C:  MOVWF  x7E
0696E:  CLRF   x7F
06970:  MOVLW  01
06972:  MOVWF  x80
06974:  MOVLB  0
06976:  CALL   0EE8
....................           
....................      CONF_SENSADO: 
....................          glcd_fillScreen(0); 
0697A:  MOVLB  2
0697C:  CLRF   x7C
0697E:  MOVLB  0
06980:  CALL   0A62
....................          glcd_rect(0,0,127,63,NO,ON); 
06984:  MOVLB  2
06986:  CLRF   x7B
06988:  CLRF   x7C
0698A:  MOVLW  7F
0698C:  MOVWF  x7D
0698E:  MOVLW  3F
06990:  MOVWF  x7E
06992:  CLRF   x7F
06994:  MOVLW  01
06996:  MOVWF  x80
06998:  MOVLB  0
0699A:  CALL   0EE8
....................          glcd_rect(1,1,126,62,NO,ON); 
0699E:  MOVLW  01
069A0:  MOVLB  2
069A2:  MOVWF  x7B
069A4:  MOVWF  x7C
069A6:  MOVLW  7E
069A8:  MOVWF  x7D
069AA:  MOVLW  3E
069AC:  MOVWF  x7E
069AE:  CLRF   x7F
069B0:  MOVLW  01
069B2:  MOVWF  x80
069B4:  MOVLB  0
069B6:  CALL   0EE8
....................           
....................  
....................       
....................        
....................     } 
....................      
069BA:  SLEEP 

Configuration Fuses:
   Word  1: C200   HS IESO FCMEN
   Word  2: 0E19   NOBROWNOUT WDT128 NOWDT BORV20 NOPUT
   Word  3: 8600   PBADEN LPT1OSC MCLR
   Word  4: 00B1   STVREN NODEBUG NOLVP NOXINST BBSIZ4K
   Word  5: C03F   NOPROTECT NOCPD NOCPB
   Word  6: E03F   NOWRT NOWRTD NOWRTC NOWRTB
   Word  7: 403F   NOEBTR NOEBTRB
